
kernel/out/vexos64kernel:     file format elf64-x86-64


Disassembly of section .text:

0000000000001000 <__kassert_fail>:
    1000:	41 57                	push   r15
    1002:	49 bb 90 87 00 00 00 	movabs r11,0x8790
    1009:	00 00 00 
    100c:	4c 8d 3d ed ff ff ff 	lea    r15,[rip+0xffffffffffffffed]        # 1000 <__kassert_fail>
    1013:	48 b8 c0 e0 ff ff ff 	movabs rax,0xffffffffffffe0c0
    101a:	ff ff ff 
    101d:	4d 01 df             	add    r15,r11
    1020:	49 b9 c1 c1 ff ff ff 	movabs r9,0xffffffffffffc1c1
    1027:	ff ff ff 
    102a:	49 89 c8             	mov    r8,rcx
    102d:	89 d1                	mov    ecx,edx
    102f:	4d 01 f9             	add    r9,r15
    1032:	48 89 f2             	mov    rdx,rsi
    1035:	48 89 fe             	mov    rsi,rdi
    1038:	49 8d 3c 07          	lea    rdi,[r15+rax*1]
    103c:	31 c0                	xor    eax,eax
    103e:	41 5f                	pop    r15
    1040:	41 ff e1             	jmp    r9
    1043:	66 2e 0f 1f 84 00 00 	cs nop WORD PTR [rax+rax*1+0x0]
    104a:	00 00 00 
    104d:	0f 1f 00             	nop    DWORD PTR [rax]

0000000000001050 <cmd>:
    1050:	41 57                	push   r15
    1052:	49 bb 40 87 00 00 00 	movabs r11,0x8740
    1059:	00 00 00 
    105c:	4c 8d 3d ed ff ff ff 	lea    r15,[rip+0xffffffffffffffed]        # 1050 <cmd>
    1063:	48 ba 40 a3 ff ff ff 	movabs rdx,0xffffffffffffa340
    106a:	ff ff ff 
    106d:	4d 01 df             	add    r15,r11
    1070:	31 c0                	xor    eax,eax
    1072:	4c 01 fa             	add    rdx,r15
    1075:	55                   	push   rbp
    1076:	48 89 fd             	mov    rbp,rdi
    1079:	53                   	push   rbx
    107a:	ff d2                	call   rdx
    107c:	48 ba 30 a4 ff ff ff 	movabs rdx,0xffffffffffffa430
    1083:	ff ff ff 
    1086:	89 c3                	mov    ebx,eax
    1088:	4c 01 fa             	add    rdx,r15
    108b:	31 c0                	xor    eax,eax
    108d:	ff d2                	call   rdx
    108f:	84 db                	test   bl,bl
    1091:	74 4d                	je     10e0 <cmd+0x90>
    1093:	84 c0                	test   al,al
    1095:	75 29                	jne    10c0 <cmd+0x70>
    1097:	0f b6 f3             	movzx  esi,bl
    109a:	80 fb 58             	cmp    bl,0x58
    109d:	0f 87 bd 00 00 00    	ja     1160 <cmd+0x110>
    10a3:	83 fe 0d             	cmp    esi,0xd
    10a6:	76 38                	jbe    10e0 <cmd+0x90>
    10a8:	8d 46 f2             	lea    eax,[rsi-0xe]
    10ab:	83 f8 4a             	cmp    eax,0x4a
    10ae:	77 30                	ja     10e0 <cmd+0x90>
    10b0:	48 8d 15 f1 67 00 00 	lea    rdx,[rip+0x67f1]        # 78a8 <vtt_putchar_at+0x148>
    10b7:	48 03 14 c2          	add    rdx,QWORD PTR [rdx+rax*8]
    10bb:	ff e2                	jmp    rdx
    10bd:	0f 1f 00             	nop    DWORD PTR [rax]
    10c0:	0f be f0             	movsx  esi,al
    10c3:	48 b8 d0 de ff ff ff 	movabs rax,0xffffffffffffded0
    10ca:	ff ff ff 
    10cd:	48 89 ef             	mov    rdi,rbp
    10d0:	4c 01 f8             	add    rax,r15
    10d3:	ff d0                	call   rax
    10d5:	eb c0                	jmp    1097 <cmd+0x47>
    10d7:	48 89 ef             	mov    rdi,rbp
    10da:	ff 55 40             	call   QWORD PTR [rbp+0x40]
    10dd:	0f 1f 00             	nop    DWORD PTR [rax]
    10e0:	31 c0                	xor    eax,eax
    10e2:	5b                   	pop    rbx
    10e3:	5d                   	pop    rbp
    10e4:	41 5f                	pop    r15
    10e6:	c3                   	ret
    10e7:	66 0f 1f 84 00 00 00 	nop    WORD PTR [rax+rax*1+0x0]
    10ee:	00 00 
    10f0:	8d 5e c5             	lea    ebx,[rsi-0x3b]
    10f3:	48 b8 90 da ff ff ff 	movabs rax,0xffffffffffffda90
    10fa:	ff ff ff 
    10fd:	48 63 fb             	movsxd rdi,ebx
    1100:	4c 01 f8             	add    rax,r15
    1103:	ff d0                	call   rax
    1105:	48 b8 fe e0 ff ff ff 	movabs rax,0xffffffffffffe0fe
    110c:	ff ff ff 
    110f:	48 ba c1 c1 ff ff ff 	movabs rdx,0xffffffffffffc1c1
    1116:	ff ff ff 
    1119:	89 de                	mov    esi,ebx
    111b:	49 8d 3c 07          	lea    rdi,[r15+rax*1]
    111f:	4c 01 fa             	add    rdx,r15
    1122:	31 c0                	xor    eax,eax
    1124:	ff d2                	call   rdx
    1126:	eb b8                	jmp    10e0 <cmd+0x90>
    1128:	ff 45 0c             	inc    DWORD PTR [rbp+0xc]
    112b:	eb b3                	jmp    10e0 <cmd+0x90>
    112d:	cc                   	int3
    112e:	eb b0                	jmp    10e0 <cmd+0x90>
    1130:	48 89 ef             	mov    rdi,rbp
    1133:	ff 55 30             	call   QWORD PTR [rbp+0x30]
    1136:	eb a8                	jmp    10e0 <cmd+0x90>
    1138:	ff 4d 0c             	dec    DWORD PTR [rbp+0xc]
    113b:	eb a3                	jmp    10e0 <cmd+0x90>
    113d:	48 89 ef             	mov    rdi,rbp
    1140:	ff 55 58             	call   QWORD PTR [rbp+0x58]
    1143:	eb 9b                	jmp    10e0 <cmd+0x90>
    1145:	48 89 ef             	mov    rdi,rbp
    1148:	ff 55 60             	call   QWORD PTR [rbp+0x60]
    114b:	eb 93                	jmp    10e0 <cmd+0x90>
    114d:	48 89 ef             	mov    rdi,rbp
    1150:	ff 55 38             	call   QWORD PTR [rbp+0x38]
    1153:	eb 8b                	jmp    10e0 <cmd+0x90>
    1155:	48 89 ef             	mov    rdi,rbp
    1158:	ff 55 48             	call   QWORD PTR [rbp+0x48]
    115b:	eb 83                	jmp    10e0 <cmd+0x90>
    115d:	0f 1f 00             	nop    DWORD PTR [rax]
    1160:	31 c0                	xor    eax,eax
    1162:	81 fe 81 00 00 00    	cmp    esi,0x81
    1168:	0f 94 c0             	sete   al
    116b:	e9 72 ff ff ff       	jmp    10e2 <cmd+0x92>

0000000000001170 <atoi>:
    1170:	48 0f be 07          	movsx  rax,BYTE PTR [rdi]
    1174:	84 c0                	test   al,al
    1176:	74 28                	je     11a0 <atoi+0x30>
    1178:	48 ff c7             	inc    rdi
    117b:	31 d2                	xor    edx,edx
    117d:	0f 1f 00             	nop    DWORD PTR [rax]
    1180:	48 8d 14 92          	lea    rdx,[rdx+rdx*4]
    1184:	48 ff c7             	inc    rdi
    1187:	48 8d 54 50 d0       	lea    rdx,[rax+rdx*2-0x30]
    118c:	48 0f be 47 ff       	movsx  rax,BYTE PTR [rdi-0x1]
    1191:	84 c0                	test   al,al
    1193:	75 eb                	jne    1180 <atoi+0x10>
    1195:	48 89 d0             	mov    rax,rdx
    1198:	c3                   	ret
    1199:	0f 1f 80 00 00 00 00 	nop    DWORD PTR [rax+0x0]
    11a0:	31 d2                	xor    edx,edx
    11a2:	48 89 d0             	mov    rax,rdx
    11a5:	c3                   	ret
    11a6:	66 2e 0f 1f 84 00 00 	cs nop WORD PTR [rax+rax*1+0x0]
    11ad:	00 00 00 

00000000000011b0 <itoa>:
    11b0:	41 57                	push   r15
    11b2:	49 bb e0 85 00 00 00 	movabs r11,0x85e0
    11b9:	00 00 00 
    11bc:	4c 8d 3d ed ff ff ff 	lea    r15,[rip+0xffffffffffffffed]        # 11b0 <itoa>
    11c3:	48 89 f9             	mov    rcx,rdi
    11c6:	4d 01 df             	add    r15,r11
    11c9:	45 31 d2             	xor    r10d,r10d
    11cc:	53                   	push   rbx
    11cd:	48 89 f3             	mov    rbx,rsi
    11d0:	48 83 ec 08          	sub    rsp,0x8
    11d4:	48 85 ff             	test   rdi,rdi
    11d7:	79 09                	jns    11e2 <itoa+0x32>
    11d9:	48 f7 d9             	neg    rcx
    11dc:	41 ba 01 00 00 00    	mov    r10d,0x1
    11e2:	31 f6                	xor    esi,esi
    11e4:	49 b8 cd cc cc cc cc 	movabs r8,0xcccccccccccccccd
    11eb:	cc cc cc 
    11ee:	66 90                	xchg   ax,ax
    11f0:	48 89 c8             	mov    rax,rcx
    11f3:	49 89 f1             	mov    r9,rsi
    11f6:	48 ff c6             	inc    rsi
    11f9:	49 f7 e0             	mul    r8
    11fc:	48 89 c8             	mov    rax,rcx
    11ff:	48 c1 ea 03          	shr    rdx,0x3
    1203:	48 8d 3c 92          	lea    rdi,[rdx+rdx*4]
    1207:	48 01 ff             	add    rdi,rdi
    120a:	48 29 f8             	sub    rax,rdi
    120d:	83 c0 30             	add    eax,0x30
    1210:	88 44 33 ff          	mov    BYTE PTR [rbx+rsi*1-0x1],al
    1214:	48 89 c8             	mov    rax,rcx
    1217:	48 89 d1             	mov    rcx,rdx
    121a:	48 83 f8 09          	cmp    rax,0x9
    121e:	7f d0                	jg     11f0 <itoa+0x40>
    1220:	45 84 d2             	test   r10b,r10b
    1223:	74 08                	je     122d <itoa+0x7d>
    1225:	c6 04 33 2d          	mov    BYTE PTR [rbx+rsi*1],0x2d
    1229:	49 8d 71 02          	lea    rsi,[r9+0x2]
    122d:	c6 04 33 00          	mov    BYTE PTR [rbx+rsi*1],0x0
    1231:	48 b8 a0 cd ff ff ff 	movabs rax,0xffffffffffffcda0
    1238:	ff ff ff 
    123b:	48 89 df             	mov    rdi,rbx
    123e:	4c 01 f8             	add    rax,r15
    1241:	ff d0                	call   rax
    1243:	48 83 c4 08          	add    rsp,0x8
    1247:	48 89 d8             	mov    rax,rbx
    124a:	5b                   	pop    rbx
    124b:	41 5f                	pop    r15
    124d:	c3                   	ret
    124e:	66 90                	xchg   ax,ax

0000000000001250 <itoa_f>:
    1250:	41 57                	push   r15
    1252:	49 bb 40 85 00 00 00 	movabs r11,0x8540
    1259:	00 00 00 
    125c:	4c 8d 3d ed ff ff ff 	lea    r15,[rip+0xffffffffffffffed]        # 1250 <itoa_f>
    1263:	49 89 d1             	mov    r9,rdx
    1266:	4d 01 df             	add    r15,r11
    1269:	41 89 ca             	mov    r10d,ecx
    126c:	45 31 db             	xor    r11d,r11d
    126f:	55                   	push   rbp
    1270:	53                   	push   rbx
    1271:	48 89 f3             	mov    rbx,rsi
    1274:	48 85 ff             	test   rdi,rdi
    1277:	79 09                	jns    1282 <itoa_f+0x32>
    1279:	48 f7 df             	neg    rdi
    127c:	41 bb 01 00 00 00    	mov    r11d,0x1
    1282:	31 c9                	xor    ecx,ecx
    1284:	48 be cd cc cc cc cc 	movabs rsi,0xcccccccccccccccd
    128b:	cc cc cc 
    128e:	66 90                	xchg   ax,ax
    1290:	48 89 f8             	mov    rax,rdi
    1293:	49 89 c8             	mov    r8,rcx
    1296:	48 ff c1             	inc    rcx
    1299:	48 f7 e6             	mul    rsi
    129c:	48 89 f8             	mov    rax,rdi
    129f:	48 c1 ea 03          	shr    rdx,0x3
    12a3:	48 8d 2c 92          	lea    rbp,[rdx+rdx*4]
    12a7:	48 01 ed             	add    rbp,rbp
    12aa:	48 29 e8             	sub    rax,rbp
    12ad:	83 c0 30             	add    eax,0x30
    12b0:	88 44 0b ff          	mov    BYTE PTR [rbx+rcx*1-0x1],al
    12b4:	48 89 f8             	mov    rax,rdi
    12b7:	48 89 d7             	mov    rdi,rdx
    12ba:	48 83 f8 09          	cmp    rax,0x9
    12be:	7f d0                	jg     1290 <itoa_f+0x40>
    12c0:	45 84 db             	test   r11b,r11b
    12c3:	74 08                	je     12cd <itoa_f+0x7d>
    12c5:	c6 04 0b 2d          	mov    BYTE PTR [rbx+rcx*1],0x2d
    12c9:	49 8d 48 02          	lea    rcx,[r8+0x2]
    12cd:	4c 39 c9             	cmp    rcx,r9
    12d0:	0f 83 1a 01 00 00    	jae    13f0 <itoa_f+0x1a0>
    12d6:	4c 89 ce             	mov    rsi,r9
    12d9:	48 29 ce             	sub    rsi,rcx
    12dc:	48 8d 46 ff          	lea    rax,[rsi-0x1]
    12e0:	48 83 f8 0e          	cmp    rax,0xe
    12e4:	0f 86 0b 01 00 00    	jbe    13f5 <itoa_f+0x1a5>
    12ea:	66 41 0f 6e c2       	movd   xmm0,r10d
    12ef:	66 0f ef c9          	pxor   xmm1,xmm1
    12f3:	48 8d 04 0b          	lea    rax,[rbx+rcx*1]
    12f7:	48 89 f7             	mov    rdi,rsi
    12fa:	48 83 e7 f0          	and    rdi,0xfffffffffffffff0
    12fe:	66 0f 38 00 c1       	pshufb xmm0,xmm1
    1303:	48 8d 14 07          	lea    rdx,[rdi+rax*1]
    1307:	40 f6 c7 10          	test   dil,0x10
    130b:	74 13                	je     1320 <itoa_f+0xd0>
    130d:	0f 11 00             	movups XMMWORD PTR [rax],xmm0
    1310:	48 83 c0 10          	add    rax,0x10
    1314:	48 39 c2             	cmp    rdx,rax
    1317:	74 17                	je     1330 <itoa_f+0xe0>
    1319:	0f 1f 80 00 00 00 00 	nop    DWORD PTR [rax+0x0]
    1320:	0f 11 00             	movups XMMWORD PTR [rax],xmm0
    1323:	48 83 c0 20          	add    rax,0x20
    1327:	0f 11 40 f0          	movups XMMWORD PTR [rax-0x10],xmm0
    132b:	48 39 c2             	cmp    rdx,rax
    132e:	75 f0                	jne    1320 <itoa_f+0xd0>
    1330:	48 8d 04 39          	lea    rax,[rcx+rdi*1]
    1334:	48 39 f7             	cmp    rdi,rsi
    1337:	0f 84 8b 00 00 00    	je     13c8 <itoa_f+0x178>
    133d:	48 29 fe             	sub    rsi,rdi
    1340:	48 8d 56 ff          	lea    rdx,[rsi-0x1]
    1344:	48 83 fa 06          	cmp    rdx,0x6
    1348:	76 26                	jbe    1370 <itoa_f+0x120>
    134a:	41 0f b6 d2          	movzx  edx,r10b
    134e:	48 01 d9             	add    rcx,rbx
    1351:	88 d6                	mov    dh,dl
    1353:	66 0f 6e d2          	movd   xmm2,edx
    1357:	48 89 f2             	mov    rdx,rsi
    135a:	48 83 e2 f8          	and    rdx,0xfffffffffffffff8
    135e:	f2 0f 70 c2 00       	pshuflw xmm0,xmm2,0x0
    1363:	48 01 d0             	add    rax,rdx
    1366:	83 e6 07             	and    esi,0x7
    1369:	66 0f d6 04 39       	movq   QWORD PTR [rcx+rdi*1],xmm0
    136e:	74 58                	je     13c8 <itoa_f+0x178>
    1370:	48 8d 50 01          	lea    rdx,[rax+0x1]
    1374:	44 88 14 03          	mov    BYTE PTR [rbx+rax*1],r10b
    1378:	4c 39 ca             	cmp    rdx,r9
    137b:	73 4b                	jae    13c8 <itoa_f+0x178>
    137d:	48 8d 50 02          	lea    rdx,[rax+0x2]
    1381:	44 88 54 03 01       	mov    BYTE PTR [rbx+rax*1+0x1],r10b
    1386:	4c 39 ca             	cmp    rdx,r9
    1389:	73 3d                	jae    13c8 <itoa_f+0x178>
    138b:	48 8d 50 03          	lea    rdx,[rax+0x3]
    138f:	44 88 54 03 02       	mov    BYTE PTR [rbx+rax*1+0x2],r10b
    1394:	4c 39 ca             	cmp    rdx,r9
    1397:	73 2f                	jae    13c8 <itoa_f+0x178>
    1399:	48 8d 50 04          	lea    rdx,[rax+0x4]
    139d:	44 88 54 03 03       	mov    BYTE PTR [rbx+rax*1+0x3],r10b
    13a2:	4c 39 ca             	cmp    rdx,r9
    13a5:	73 21                	jae    13c8 <itoa_f+0x178>
    13a7:	48 8d 50 05          	lea    rdx,[rax+0x5]
    13ab:	44 88 54 03 04       	mov    BYTE PTR [rbx+rax*1+0x4],r10b
    13b0:	4c 39 ca             	cmp    rdx,r9
    13b3:	73 13                	jae    13c8 <itoa_f+0x178>
    13b5:	48 8d 50 06          	lea    rdx,[rax+0x6]
    13b9:	44 88 54 03 05       	mov    BYTE PTR [rbx+rax*1+0x5],r10b
    13be:	4c 39 ca             	cmp    rdx,r9
    13c1:	73 05                	jae    13c8 <itoa_f+0x178>
    13c3:	44 88 54 03 06       	mov    BYTE PTR [rbx+rax*1+0x6],r10b
    13c8:	42 c6 04 0b 00       	mov    BYTE PTR [rbx+r9*1],0x0
    13cd:	48 b8 a0 cd ff ff ff 	movabs rax,0xffffffffffffcda0
    13d4:	ff ff ff 
    13d7:	48 89 df             	mov    rdi,rbx
    13da:	4c 01 f8             	add    rax,r15
    13dd:	ff d0                	call   rax
    13df:	48 89 d8             	mov    rax,rbx
    13e2:	5b                   	pop    rbx
    13e3:	5d                   	pop    rbp
    13e4:	41 5f                	pop    r15
    13e6:	c3                   	ret
    13e7:	66 0f 1f 84 00 00 00 	nop    WORD PTR [rax+rax*1+0x0]
    13ee:	00 00 
    13f0:	49 89 c9             	mov    r9,rcx
    13f3:	eb d3                	jmp    13c8 <itoa_f+0x178>
    13f5:	48 89 c8             	mov    rax,rcx
    13f8:	31 ff                	xor    edi,edi
    13fa:	e9 3e ff ff ff       	jmp    133d <itoa_f+0xed>
    13ff:	90                   	nop

0000000000001400 <itohex_f>:
    1400:	80 fa 01             	cmp    dl,0x1
    1403:	55                   	push   rbp
    1404:	49 89 c9             	mov    r9,rcx
    1407:	45 19 d2             	sbb    r10d,r10d
    140a:	31 c0                	xor    eax,eax
    140c:	41 83 e2 20          	and    r10d,0x20
    1410:	53                   	push   rbx
    1411:	41 83 c2 37          	add    r10d,0x37
    1415:	48 85 ff             	test   rdi,rdi
    1418:	75 16                	jne    1430 <itohex_f+0x30>
    141a:	e9 91 01 00 00       	jmp    15b0 <itohex_f+0x1b0>
    141f:	90                   	nop
    1420:	83 c2 30             	add    edx,0x30
    1423:	48 c1 ef 04          	shr    rdi,0x4
    1427:	88 54 0e ff          	mov    BYTE PTR [rsi+rcx*1-0x1],dl
    142b:	74 20                	je     144d <itohex_f+0x4d>
    142d:	48 89 c8             	mov    rax,rcx
    1430:	48 89 fa             	mov    rdx,rdi
    1433:	48 8d 48 01          	lea    rcx,[rax+0x1]
    1437:	83 e2 0f             	and    edx,0xf
    143a:	48 83 fa 09          	cmp    rdx,0x9
    143e:	76 e0                	jbe    1420 <itohex_f+0x20>
    1440:	44 01 d2             	add    edx,r10d
    1443:	48 c1 ef 04          	shr    rdi,0x4
    1447:	88 54 0e ff          	mov    BYTE PTR [rsi+rcx*1-0x1],dl
    144b:	75 e0                	jne    142d <itohex_f+0x2d>
    144d:	4c 39 c9             	cmp    rcx,r9
    1450:	0f 83 24 01 00 00    	jae    157a <itohex_f+0x17a>
    1456:	48 8d 41 01          	lea    rax,[rcx+0x1]
    145a:	4d 89 ca             	mov    r10,r9
    145d:	ba 01 00 00 00       	mov    edx,0x1
    1462:	49 39 c1             	cmp    r9,rax
    1465:	40 0f 93 c5          	setae  bpl
    1469:	49 29 ca             	sub    r10,rcx
    146c:	40 84 ed             	test   bpl,bpl
    146f:	49 0f 45 d2          	cmovne rdx,r10
    1473:	49 ff ca             	dec    r10
    1476:	49 83 fa 0e          	cmp    r10,0xe
    147a:	0f 86 48 01 00 00    	jbe    15c8 <itohex_f+0x1c8>
    1480:	49 39 c1             	cmp    r9,rax
    1483:	0f 82 3f 01 00 00    	jb     15c8 <itohex_f+0x1c8>
    1489:	66 41 0f 6e c0       	movd   xmm0,r8d
    148e:	66 0f ef c9          	pxor   xmm1,xmm1
    1492:	48 8d 04 0e          	lea    rax,[rsi+rcx*1]
    1496:	48 89 d7             	mov    rdi,rdx
    1499:	48 83 e7 f0          	and    rdi,0xfffffffffffffff0
    149d:	66 0f 38 00 c1       	pshufb xmm0,xmm1
    14a2:	4c 8d 1c 38          	lea    r11,[rax+rdi*1]
    14a6:	40 f6 c7 10          	test   dil,0x10
    14aa:	74 14                	je     14c0 <itohex_f+0xc0>
    14ac:	0f 11 00             	movups XMMWORD PTR [rax],xmm0
    14af:	48 83 c0 10          	add    rax,0x10
    14b3:	4c 39 d8             	cmp    rax,r11
    14b6:	74 18                	je     14d0 <itohex_f+0xd0>
    14b8:	0f 1f 84 00 00 00 00 	nop    DWORD PTR [rax+rax*1+0x0]
    14bf:	00 
    14c0:	0f 11 00             	movups XMMWORD PTR [rax],xmm0
    14c3:	48 83 c0 20          	add    rax,0x20
    14c7:	0f 11 40 f0          	movups XMMWORD PTR [rax-0x10],xmm0
    14cb:	4c 39 d8             	cmp    rax,r11
    14ce:	75 f0                	jne    14c0 <itohex_f+0xc0>
    14d0:	48 8d 04 39          	lea    rax,[rcx+rdi*1]
    14d4:	48 39 fa             	cmp    rdx,rdi
    14d7:	0f 84 8d 00 00 00    	je     156a <itohex_f+0x16a>
    14dd:	48 29 fa             	sub    rdx,rdi
    14e0:	4c 8d 5a ff          	lea    r11,[rdx-0x1]
    14e4:	49 83 fb 06          	cmp    r11,0x6
    14e8:	76 28                	jbe    1512 <itohex_f+0x112>
    14ea:	41 0f b6 d8          	movzx  ebx,r8b
    14ee:	4c 8d 1c 0e          	lea    r11,[rsi+rcx*1]
    14f2:	88 df                	mov    bh,bl
    14f4:	66 0f 6e d3          	movd   xmm2,ebx
    14f8:	f2 0f 70 c2 00       	pshuflw xmm0,xmm2,0x0
    14fd:	66 41 0f d6 04 3b    	movq   QWORD PTR [r11+rdi*1],xmm0
    1503:	48 89 d7             	mov    rdi,rdx
    1506:	48 83 e7 f8          	and    rdi,0xfffffffffffffff8
    150a:	48 01 f8             	add    rax,rdi
    150d:	83 e2 07             	and    edx,0x7
    1510:	74 58                	je     156a <itohex_f+0x16a>
    1512:	48 8d 50 01          	lea    rdx,[rax+0x1]
    1516:	44 88 04 06          	mov    BYTE PTR [rsi+rax*1],r8b
    151a:	4c 39 ca             	cmp    rdx,r9
    151d:	73 4b                	jae    156a <itohex_f+0x16a>
    151f:	48 8d 50 02          	lea    rdx,[rax+0x2]
    1523:	44 88 44 06 01       	mov    BYTE PTR [rsi+rax*1+0x1],r8b
    1528:	4c 39 ca             	cmp    rdx,r9
    152b:	73 3d                	jae    156a <itohex_f+0x16a>
    152d:	48 8d 50 03          	lea    rdx,[rax+0x3]
    1531:	44 88 44 06 02       	mov    BYTE PTR [rsi+rax*1+0x2],r8b
    1536:	4c 39 ca             	cmp    rdx,r9
    1539:	73 2f                	jae    156a <itohex_f+0x16a>
    153b:	48 8d 50 04          	lea    rdx,[rax+0x4]
    153f:	44 88 44 06 03       	mov    BYTE PTR [rsi+rax*1+0x3],r8b
    1544:	4c 39 ca             	cmp    rdx,r9
    1547:	73 21                	jae    156a <itohex_f+0x16a>
    1549:	48 8d 50 05          	lea    rdx,[rax+0x5]
    154d:	44 88 44 06 04       	mov    BYTE PTR [rsi+rax*1+0x4],r8b
    1552:	4c 39 ca             	cmp    rdx,r9
    1555:	73 13                	jae    156a <itohex_f+0x16a>
    1557:	48 8d 50 06          	lea    rdx,[rax+0x6]
    155b:	44 88 44 06 05       	mov    BYTE PTR [rsi+rax*1+0x5],r8b
    1560:	4c 39 ca             	cmp    rdx,r9
    1563:	73 05                	jae    156a <itohex_f+0x16a>
    1565:	44 88 44 06 06       	mov    BYTE PTR [rsi+rax*1+0x6],r8b
    156a:	31 c0                	xor    eax,eax
    156c:	40 84 ed             	test   bpl,bpl
    156f:	49 0f 45 c2          	cmovne rax,r10
    1573:	48 01 c8             	add    rax,rcx
    1576:	48 8d 48 01          	lea    rcx,[rax+0x1]
    157a:	c6 04 0e 00          	mov    BYTE PTR [rsi+rcx*1],0x0
    157e:	48 85 c0             	test   rax,rax
    1581:	78 1f                	js     15a2 <itohex_f+0x1a2>
    1583:	31 d2                	xor    edx,edx
    1585:	0f 1f 00             	nop    DWORD PTR [rax]
    1588:	0f b6 0c 16          	movzx  ecx,BYTE PTR [rsi+rdx*1]
    158c:	0f b6 3c 06          	movzx  edi,BYTE PTR [rsi+rax*1]
    1590:	40 88 3c 16          	mov    BYTE PTR [rsi+rdx*1],dil
    1594:	48 ff c2             	inc    rdx
    1597:	88 0c 06             	mov    BYTE PTR [rsi+rax*1],cl
    159a:	48 ff c8             	dec    rax
    159d:	48 39 c2             	cmp    rdx,rax
    15a0:	7e e6                	jle    1588 <itohex_f+0x188>
    15a2:	5b                   	pop    rbx
    15a3:	48 89 f0             	mov    rax,rsi
    15a6:	5d                   	pop    rbp
    15a7:	c3                   	ret
    15a8:	0f 1f 84 00 00 00 00 	nop    DWORD PTR [rax+rax*1+0x0]
    15af:	00 
    15b0:	c6 06 30             	mov    BYTE PTR [rsi],0x30
    15b3:	b9 01 00 00 00       	mov    ecx,0x1
    15b8:	49 83 f9 01          	cmp    r9,0x1
    15bc:	0f 87 94 fe ff ff    	ja     1456 <itohex_f+0x56>
    15c2:	c6 46 01 00          	mov    BYTE PTR [rsi+0x1],0x0
    15c6:	eb da                	jmp    15a2 <itohex_f+0x1a2>
    15c8:	48 89 c8             	mov    rax,rcx
    15cb:	31 ff                	xor    edi,edi
    15cd:	e9 0b ff ff ff       	jmp    14dd <itohex_f+0xdd>
    15d2:	66 66 2e 0f 1f 84 00 	data16 cs nop WORD PTR [rax+rax*1+0x0]
    15d9:	00 00 00 00 
    15dd:	0f 1f 00             	nop    DWORD PTR [rax]

00000000000015e0 <itohex>:
    15e0:	48 8d 05 f9 ff ff ff 	lea    rax,[rip+0xfffffffffffffff9]        # 15e0 <itohex>
    15e7:	49 bb b0 81 00 00 00 	movabs r11,0x81b0
    15ee:	00 00 00 
    15f1:	49 b9 70 7c ff ff ff 	movabs r9,0xffffffffffff7c70
    15f8:	ff ff ff 
    15fb:	41 b8 30 00 00 00    	mov    r8d,0x30
    1601:	4c 01 d8             	add    rax,r11
    1604:	31 c9                	xor    ecx,ecx
    1606:	0f b6 d2             	movzx  edx,dl
    1609:	4c 01 c8             	add    rax,r9
    160c:	ff e0                	jmp    rax
    160e:	66 90                	xchg   ax,ax

0000000000001610 <gdt_load>:
    1610:	0f 01 17             	lgdt   [rdi]
    1613:	66 b8 10 00          	mov    ax,0x10
    1617:	8e d8                	mov    ds,eax
    1619:	8e c0                	mov    es,eax
    161b:	8e e0                	mov    fs,eax
    161d:	8e e8                	mov    gs,eax
    161f:	8e d0                	mov    ss,eax
    1621:	5f                   	pop    rdi
    1622:	b8 08 00 00 00       	mov    eax,0x8
    1627:	50                   	push   rax
    1628:	57                   	push   rdi
    1629:	48 cb                	retfq

000000000000162b <idt_load>:
    162b:	0f 01 1f             	lidt   [rdi]
    162e:	c3                   	ret
    162f:	90                   	nop

0000000000001630 <gdt_setup>:
    1630:	41 57                	push   r15
    1632:	49 bb 60 81 00 00 00 	movabs r11,0x8160
    1639:	00 00 00 
    163c:	4c 8d 3d ed ff ff ff 	lea    r15,[rip+0xffffffffffffffed]        # 1630 <gdt_setup>
    1643:	48 b8 70 e3 ff ff ff 	movabs rax,0xffffffffffffe370
    164a:	ff ff ff 
    164d:	4d 01 df             	add    r15,r11
    1650:	49 8d 3c 07          	lea    rdi,[r15+rax*1]
    1654:	31 c0                	xor    eax,eax
    1656:	53                   	push   rbx
    1657:	48 bb c1 c1 ff ff ff 	movabs rbx,0xffffffffffffc1c1
    165e:	ff ff ff 
    1661:	4c 01 fb             	add    rbx,r15
    1664:	48 83 ec 08          	sub    rsp,0x8
    1668:	ff d3                	call   rbx
    166a:	48 ba 30 00 00 00 00 	movabs rdx,0x30
    1671:	00 00 00 
    1674:	b8 1f 00 00 00       	mov    eax,0x1f
    1679:	48 be 00 00 00 00 00 	movabs rsi,0xa09a0000000000
    1680:	9a a0 00 
    1683:	66 41 89 04 17       	mov    WORD PTR [r15+rdx*1],ax
    1688:	48 b8 70 08 00 00 00 	movabs rax,0x870
    168f:	00 00 00 
    1692:	49 8d 0c 07          	lea    rcx,[r15+rax*1]
    1696:	49 c7 04 07 00 00 00 	mov    QWORD PTR [r15+rax*1],0x0
    169d:	00 
    169e:	49 89 4c 17 02       	mov    QWORD PTR [r15+rdx*1+0x2],rcx
    16a3:	48 b9 00 00 00 00 00 	movabs rcx,0xa0920000000000
    16aa:	92 a0 00 
    16ad:	4a 89 74 38 08       	mov    QWORD PTR [rax+r15*1+0x8],rsi
    16b2:	4a 89 4c 38 10       	mov    QWORD PTR [rax+r15*1+0x10],rcx
    16b7:	49 c7 44 07 18 00 00 	mov    QWORD PTR [r15+rax*1+0x18],0x0
    16be:	00 00 
    16c0:	fa                   	cli
    16c1:	48 b8 80 7e ff ff ff 	movabs rax,0xffffffffffff7e80
    16c8:	ff ff ff 
    16cb:	49 8d 3c 17          	lea    rdi,[r15+rdx*1]
    16cf:	4c 01 f8             	add    rax,r15
    16d2:	ff d0                	call   rax
    16d4:	fb                   	sti
    16d5:	48 b8 84 e3 ff ff ff 	movabs rax,0xffffffffffffe384
    16dc:	ff ff ff 
    16df:	49 8d 3c 07          	lea    rdi,[r15+rax*1]
    16e3:	31 c0                	xor    eax,eax
    16e5:	ff d3                	call   rbx
    16e7:	48 83 c4 08          	add    rsp,0x8
    16eb:	31 c0                	xor    eax,eax
    16ed:	5b                   	pop    rbx
    16ee:	41 5f                	pop    r15
    16f0:	c3                   	ret
    16f1:	66 2e 0f 1f 84 00 00 	cs nop WORD PTR [rax+rax*1+0x0]
    16f8:	00 00 00 
    16fb:	0f 1f 44 00 00       	nop    DWORD PTR [rax+rax*1+0x0]

0000000000001700 <graphics_drawpixel>:
    1700:	0f af 31             	imul   esi,DWORD PTR [rcx]
    1703:	48 8d 05 f6 ff ff ff 	lea    rax,[rip+0xfffffffffffffff6]        # 1700 <graphics_drawpixel>
    170a:	49 bb 90 80 00 00 00 	movabs r11,0x8090
    1711:	00 00 00 
    1714:	4c 01 d8             	add    rax,r11
    1717:	8d 0c 3e             	lea    ecx,[rsi+rdi*1]
    171a:	48 be d0 ff ff ff ff 	movabs rsi,0xffffffffffffffd0
    1721:	ff ff ff 
    1724:	48 8b 04 30          	mov    rax,QWORD PTR [rax+rsi*1]
    1728:	48 8b 00             	mov    rax,QWORD PTR [rax]
    172b:	48 8b 40 08          	mov    rax,QWORD PTR [rax+0x8]
    172f:	48 8d 04 88          	lea    rax,[rax+rcx*4]
    1733:	89 d1                	mov    ecx,edx
    1735:	c1 e9 10             	shr    ecx,0x10
    1738:	66 89 10             	mov    WORD PTR [rax],dx
    173b:	88 48 02             	mov    BYTE PTR [rax+0x2],cl
    173e:	c3                   	ret
    173f:	90                   	nop

0000000000001740 <graphics_drawchar>:
    1740:	41 57                	push   r15
    1742:	49 bb 50 80 00 00 00 	movabs r11,0x8050
    1749:	00 00 00 
    174c:	89 f8                	mov    eax,edi
    174e:	89 d7                	mov    edi,edx
    1750:	41 56                	push   r14
    1752:	4c 8d 35 e7 ff ff ff 	lea    r14,[rip+0xffffffffffffffe7]        # 1740 <graphics_drawchar>
    1759:	4d 01 de             	add    r14,r11
    175c:	41 55                	push   r13
    175e:	41 54                	push   r12
    1760:	55                   	push   rbp
    1761:	53                   	push   rbx
    1762:	48 81 ec 68 01 00 00 	sub    rsp,0x168
    1769:	4c 89 8c 24 18 01 00 	mov    QWORD PTR [rsp+0x118],r9
    1770:	00 
    1771:	41 3b 11             	cmp    edx,DWORD PTR [r9]
    1774:	0f 83 a2 02 00 00    	jae    1a1c <graphics_drawchar+0x2dc>
    177a:	89 cb                	mov    ebx,ecx
    177c:	41 8b 49 08          	mov    ecx,DWORD PTR [r9+0x8]
    1780:	44 89 c2             	mov    edx,r8d
    1783:	49 89 c8             	mov    r8,rcx
    1786:	85 c9                	test   ecx,ecx
    1788:	0f 84 8e 02 00 00    	je     1a1c <graphics_drawchar+0x2dc>
    178e:	45 8b 51 04          	mov    r10d,DWORD PTR [r9+0x4]
    1792:	88 94 24 15 01 00 00 	mov    BYTE PTR [rsp+0x115],dl
    1799:	66 0f 6e da          	movd   xmm3,edx
    179d:	88 94 24 d8 00 00 00 	mov    BYTE PTR [rsp+0xd8],dl
    17a4:	45 0f af c2          	imul   r8d,r10d
    17a8:	66 89 9c 24 d2 00 00 	mov    WORD PTR [rsp+0xd2],bx
    17af:	00 
    17b0:	88 9c 24 d4 00 00 00 	mov    BYTE PTR [rsp+0xd4],bl
    17b7:	4c 89 54 24 10       	mov    QWORD PTR [rsp+0x10],r10
    17bc:	45 89 c3             	mov    r11d,r8d
    17bf:	44 0f af df          	imul   r11d,edi
    17c3:	48 bf d0 ff ff ff ff 	movabs rdi,0xffffffffffffffd0
    17ca:	ff ff ff 
    17cd:	49 8b 3c 3e          	mov    rdi,QWORD PTR [r14+rdi*1]
    17d1:	48 8b 3f             	mov    rdi,QWORD PTR [rdi]
    17d4:	4c 89 5c 24 08       	mov    QWORD PTR [rsp+0x8],r11
    17d9:	48 89 bc 24 20 01 00 	mov    QWORD PTR [rsp+0x120],rdi
    17e0:	00 
    17e1:	0f b6 fe             	movzx  edi,dh
    17e4:	66 89 bc 24 16 01 00 	mov    WORD PTR [rsp+0x116],di
    17eb:	00 
    17ec:	0f b6 fe             	movzx  edi,dh
    17ef:	c1 ea 10             	shr    edx,0x10
    17f2:	41 89 d5             	mov    r13d,edx
    17f5:	0f b6 d7             	movzx  edx,bh
    17f8:	89 bc 24 dc 00 00 00 	mov    DWORD PTR [rsp+0xdc],edi
    17ff:	66 89 94 24 12 01 00 	mov    WORD PTR [rsp+0x112],dx
    1806:	00 
    1807:	0f b6 d7             	movzx  edx,bh
    180a:	c1 eb 10             	shr    ebx,0x10
    180d:	88 5c 24 1c          	mov    BYTE PTR [rsp+0x1c],bl
    1811:	4d 85 d2             	test   r10,r10
    1814:	0f 84 02 02 00 00    	je     1a1c <graphics_drawchar+0x2dc>
    181a:	4a 8d 1c 95 00 00 00 	lea    rbx,[r10*4+0x0]
    1821:	00 
    1822:	89 f6                	mov    esi,esi
    1824:	66 0f 6e 44 24 1c    	movd   xmm0,DWORD PTR [rsp+0x1c]
    182a:	48 89 84 24 40 01 00 	mov    QWORD PTR [rsp+0x140],rax
    1831:	00 
    1832:	48 89 9c 24 30 01 00 	mov    QWORD PTR [rsp+0x130],rbx
    1839:	00 
    183a:	4a 8d 1c 9d 00 00 00 	lea    rbx,[r11*4+0x0]
    1841:	00 
    1842:	66 0f 6f e0          	movdqa xmm4,xmm0
    1846:	66 0f 6e c2          	movd   xmm0,edx
    184a:	48 89 9c 24 c8 00 00 	mov    QWORD PTR [rsp+0xc8],rbx
    1851:	00 
    1852:	49 8d 5a ff          	lea    rbx,[r10-0x1]
    1856:	66 0f 6f d0          	movdqa xmm2,xmm0
    185a:	66 0f 3a 20 a4 24 d4 	pinsrb xmm4,BYTE PTR [rsp+0xd4],0x1
    1861:	00 00 00 01 
    1865:	48 89 b4 24 b0 00 00 	mov    QWORD PTR [rsp+0xb0],rsi
    186c:	00 
    186d:	48 01 ce             	add    rsi,rcx
    1870:	48 89 d9             	mov    rcx,rbx
    1873:	66 0f 3a 20 54 24 1c 	pinsrb xmm2,BYTE PTR [rsp+0x1c],0x1
    187a:	01 
    187b:	48 c1 e9 04          	shr    rcx,0x4
    187f:	48 89 9c 24 c0 00 00 	mov    QWORD PTR [rsp+0xc0],rbx
    1886:	00 
    1887:	48 83 e3 f0          	and    rbx,0xfffffffffffffff0
    188b:	66 0f 6e 84 24 d4 00 	movd   xmm0,DWORD PTR [rsp+0xd4]
    1892:	00 00 
    1894:	48 c1 e1 06          	shl    rcx,0x6
    1898:	48 89 b4 24 38 01 00 	mov    QWORD PTR [rsp+0x138],rsi
    189f:	00 
    18a0:	66 0f 6f c8          	movdqa xmm1,xmm0
    18a4:	48 89 8c 24 48 01 00 	mov    QWORD PTR [rsp+0x148],rcx
    18ab:	00 
    18ac:	66 0f 3a 20 ca 01    	pinsrb xmm1,edx,0x1
    18b2:	48 89 9c 24 28 01 00 	mov    QWORD PTR [rsp+0x128],rbx
    18b9:	00 
    18ba:	0f 29 a4 24 50 01 00 	movaps XMMWORD PTR [rsp+0x150],xmm4
    18c1:	00 
    18c2:	66 0f 61 e2          	punpcklwd xmm4,xmm2
    18c6:	66 2e 0f 1f 84 00 00 	cs nop WORD PTR [rax+rax*1+0x0]
    18cd:	00 00 00 
    18d0:	48 8b 84 24 a0 01 00 	mov    rax,QWORD PTR [rsp+0x1a0]
    18d7:	00 
    18d8:	48 8b b4 24 b0 00 00 	mov    rsi,QWORD PTR [rsp+0xb0]
    18df:	00 
    18e0:	8b 00                	mov    eax,DWORD PTR [rax]
    18e2:	48 0f af c6          	imul   rax,rsi
    18e6:	48 8b b4 24 40 01 00 	mov    rsi,QWORD PTR [rsp+0x140]
    18ed:	00 
    18ee:	48 83 bc 24 c0 00 00 	cmp    QWORD PTR [rsp+0xc0],0x7
    18f5:	00 07 
    18f7:	4c 8d 24 30          	lea    r12,[rax+rsi*1]
    18fb:	48 8b 84 24 20 01 00 	mov    rax,QWORD PTR [rsp+0x120]
    1902:	00 
    1903:	4c 8b 78 08          	mov    r15,QWORD PTR [rax+0x8]
    1907:	48 8b 84 24 18 01 00 	mov    rax,QWORD PTR [rsp+0x118]
    190e:	00 
    190f:	48 8b 40 10          	mov    rax,QWORD PTR [rax+0x10]
    1913:	48 89 04 24          	mov    QWORD PTR [rsp],rax
    1917:	0f 86 2b 0b 00 00    	jbe    2448 <graphics_drawchar+0xd08>
    191d:	48 89 c6             	mov    rsi,rax
    1920:	48 8b 9c 24 c8 00 00 	mov    rbx,QWORD PTR [rsp+0xc8]
    1927:	00 
    1928:	4a 8d 04 a5 00 00 00 	lea    rax,[r12*4+0x0]
    192f:	00 
    1930:	48 89 84 24 b8 00 00 	mov    QWORD PTR [rsp+0xb8],rax
    1937:	00 
    1938:	4c 01 f8             	add    rax,r15
    193b:	48 8d 4c 1e 06       	lea    rcx,[rsi+rbx*1+0x6]
    1940:	48 89 c2             	mov    rdx,rax
    1943:	48 29 ca             	sub    rdx,rcx
    1946:	48 83 c2 02          	add    rdx,0x2
    194a:	48 83 fa 3a          	cmp    rdx,0x3a
    194e:	0f 87 0c 01 00 00    	ja     1a60 <graphics_drawchar+0x320>
    1954:	48 8b 8c 24 c8 00 00 	mov    rcx,QWORD PTR [rsp+0xc8]
    195b:	00 
    195c:	48 8b 9c 24 b8 00 00 	mov    rbx,QWORD PTR [rsp+0xb8]
    1963:	00 
    1964:	48 8b 74 24 10       	mov    rsi,QWORD PTR [rsp+0x10]
    1969:	4c 29 f9             	sub    rcx,r15
    196c:	49 8d 04 1f          	lea    rax,[r15+rbx*1]
    1970:	48 29 d9             	sub    rcx,rbx
    1973:	48 8b 1c 24          	mov    rbx,QWORD PTR [rsp]
    1977:	4c 01 e6             	add    rsi,r12
    197a:	49 8d 14 b7          	lea    rdx,[r15+rsi*4]
    197e:	48 01 cb             	add    rbx,rcx
    1981:	48 89 d9             	mov    rcx,rbx
    1984:	0f 1f 40 00          	nop    DWORD PTR [rax+0x0]
    1988:	80 7c 01 02 ff       	cmp    BYTE PTR [rcx+rax*1+0x2],0xff
    198d:	0f 84 9d 00 00 00    	je     1a30 <graphics_drawchar+0x2f0>
    1993:	44 88 68 02          	mov    BYTE PTR [rax+0x2],r13b
    1997:	66 0f 3a 15 18 00    	pextrw WORD PTR [rax],xmm3,0x0
    199d:	48 83 c0 04          	add    rax,0x4
    19a1:	48 39 c2             	cmp    rdx,rax
    19a4:	75 e2                	jne    1988 <graphics_drawchar+0x248>
    19a6:	48 8b 84 24 b8 00 00 	mov    rax,QWORD PTR [rsp+0xb8]
    19ad:	00 
    19ae:	49 8d 14 b7          	lea    rdx,[r15+rsi*4]
    19b2:	48 89 d1             	mov    rcx,rdx
    19b5:	4c 01 f8             	add    rax,r15
    19b8:	48 29 c1             	sub    rcx,rax
    19bb:	83 e1 04             	and    ecx,0x4
    19be:	74 10                	je     19d0 <graphics_drawchar+0x290>
    19c0:	c6 40 03 00          	mov    BYTE PTR [rax+0x3],0x0
    19c4:	48 83 c0 04          	add    rax,0x4
    19c8:	48 39 d0             	cmp    rax,rdx
    19cb:	74 14                	je     19e1 <graphics_drawchar+0x2a1>
    19cd:	0f 1f 00             	nop    DWORD PTR [rax]
    19d0:	c6 40 03 00          	mov    BYTE PTR [rax+0x3],0x0
    19d4:	48 83 c0 08          	add    rax,0x8
    19d8:	c6 40 ff 00          	mov    BYTE PTR [rax-0x1],0x0
    19dc:	48 39 d0             	cmp    rax,rdx
    19df:	75 ef                	jne    19d0 <graphics_drawchar+0x290>
    19e1:	48 ff 84 24 b0 00 00 	inc    QWORD PTR [rsp+0xb0]
    19e8:	00 
    19e9:	48 8b b4 24 30 01 00 	mov    rsi,QWORD PTR [rsp+0x130]
    19f0:	00 
    19f1:	48 8b 5c 24 10       	mov    rbx,QWORD PTR [rsp+0x10]
    19f6:	48 01 b4 24 c8 00 00 	add    QWORD PTR [rsp+0xc8],rsi
    19fd:	00 
    19fe:	48 8b b4 24 38 01 00 	mov    rsi,QWORD PTR [rsp+0x138]
    1a05:	00 
    1a06:	48 01 5c 24 08       	add    QWORD PTR [rsp+0x8],rbx
    1a0b:	48 8b 84 24 b0 00 00 	mov    rax,QWORD PTR [rsp+0xb0]
    1a12:	00 
    1a13:	48 39 f0             	cmp    rax,rsi
    1a16:	0f 85 b4 fe ff ff    	jne    18d0 <graphics_drawchar+0x190>
    1a1c:	48 81 c4 68 01 00 00 	add    rsp,0x168
    1a23:	5b                   	pop    rbx
    1a24:	5d                   	pop    rbp
    1a25:	41 5c                	pop    r12
    1a27:	41 5d                	pop    r13
    1a29:	41 5e                	pop    r14
    1a2b:	41 5f                	pop    r15
    1a2d:	c3                   	ret
    1a2e:	66 90                	xchg   ax,ax
    1a30:	0f b7 9c 24 d2 00 00 	movzx  ebx,WORD PTR [rsp+0xd2]
    1a37:	00 
    1a38:	48 83 c0 04          	add    rax,0x4
    1a3c:	66 89 58 fc          	mov    WORD PTR [rax-0x4],bx
    1a40:	0f b6 5c 24 1c       	movzx  ebx,BYTE PTR [rsp+0x1c]
    1a45:	88 58 fe             	mov    BYTE PTR [rax-0x2],bl
    1a48:	48 39 c2             	cmp    rdx,rax
    1a4b:	0f 85 37 ff ff ff    	jne    1988 <graphics_drawchar+0x248>
    1a51:	e9 50 ff ff ff       	jmp    19a6 <graphics_drawchar+0x266>
    1a56:	66 2e 0f 1f 84 00 00 	cs nop WORD PTR [rax+rax*1+0x0]
    1a5d:	00 00 00 
    1a60:	48 83 bc 24 c0 00 00 	cmp    QWORD PTR [rsp+0xc0],0xf
    1a67:	00 0f 
    1a69:	0f 86 cb 0a 00 00    	jbe    253a <graphics_drawchar+0xdfa>
    1a6f:	66 0f 6f e9          	movdqa xmm5,xmm1
    1a73:	66 0f 6f c2          	movdqa xmm0,xmm2
    1a77:	66 0f 6f f4          	movdqa xmm6,xmm4
    1a7b:	48 8b ac 24 48 01 00 	mov    rbp,QWORD PTR [rsp+0x148]
    1a82:	00 
    1a83:	66 0f 61 ac 24 50 01 	punpcklwd xmm5,XMMWORD PTR [rsp+0x150]
    1a8a:	00 00 
    1a8c:	66 0f 61 c1          	punpcklwd xmm0,xmm1
    1a90:	66 45 0f 6e cd       	movd   xmm9,r13d
    1a95:	0f 29 94 24 e0 00 00 	movaps XMMWORD PTR [rsp+0xe0],xmm2
    1a9c:	00 
    1a9d:	66 44 0f 6f c0       	movdqa xmm8,xmm0
    1aa2:	66 44 0f 3a 20 8c 24 	pinsrb xmm9,BYTE PTR [rsp+0xd8],0x1
    1aa9:	d8 00 00 00 01 
    1aae:	48 01 c5             	add    rbp,rax
    1ab1:	0f 29 8c 24 f0 00 00 	movaps XMMWORD PTR [rsp+0xf0],xmm1
    1ab8:	00 
    1ab9:	66 0f 62 f5          	punpckldq xmm6,xmm5
    1abd:	66 44 0f 62 c4       	punpckldq xmm8,xmm4
    1ac2:	66 0f 62 e8          	punpckldq xmm5,xmm0
    1ac6:	48 89 6c 24 70       	mov    QWORD PTR [rsp+0x70],rbp
    1acb:	66 0f 6f fe          	movdqa xmm7,xmm6
    1acf:	66 0f 6e 84 24 dc 00 	movd   xmm0,DWORD PTR [rsp+0xdc]
    1ad6:	00 00 
    1ad8:	66 45 0f 6f d1       	movdqa xmm10,xmm9
    1add:	48 bd 30 e4 ff ff ff 	movabs rbp,0xffffffffffffe430
    1ae4:	ff ff ff 
    1ae7:	66 41 0f 6c f8       	punpcklqdq xmm7,xmm8
    1aec:	66 41 0f 3a 20 c5 01 	pinsrb xmm0,r13d,0x1
    1af3:	66 44 0f 6c c5       	punpcklqdq xmm8,xmm5
    1af8:	48 89 6c 24 78       	mov    QWORD PTR [rsp+0x78],rbp
    1afd:	66 44 0f 6f ff       	movdqa xmm15,xmm7
    1b02:	66 0f 6e bc 24 d8 00 	movd   xmm7,DWORD PTR [rsp+0xd8]
    1b09:	00 00 
    1b0b:	66 44 0f 61 d0       	punpcklwd xmm10,xmm0
    1b10:	48 bd 40 e4 ff ff ff 	movabs rbp,0xffffffffffffe440
    1b17:	ff ff ff 
    1b1a:	66 0f 3a 20 bc 24 dc 	pinsrb xmm7,BYTE PTR [rsp+0xdc],0x1
    1b21:	00 00 00 01 
    1b25:	66 0f 6c ee          	punpcklqdq xmm5,xmm6
    1b29:	48 89 ac 24 80 00 00 	mov    QWORD PTR [rsp+0x80],rbp
    1b30:	00 
    1b31:	48 bd 50 e4 ff ff ff 	movabs rbp,0xffffffffffffe450
    1b38:	ff ff ff 
    1b3b:	48 89 ac 24 88 00 00 	mov    QWORD PTR [rsp+0x88],rbp
    1b42:	00 
    1b43:	48 bd 60 e4 ff ff ff 	movabs rbp,0xffffffffffffe460
    1b4a:	ff ff ff 
    1b4d:	48 8d 54 1e 02       	lea    rdx,[rsi+rbx*1+0x2]
    1b52:	4c 8d 58 08          	lea    r11,[rax+0x8]
    1b56:	66 0f 6f f7          	movdqa xmm6,xmm7
    1b5a:	66 0f 61 c7          	punpcklwd xmm0,xmm7
    1b5e:	48 89 ac 24 90 00 00 	mov    QWORD PTR [rsp+0x90],rbp
    1b65:	00 
    1b66:	48 bd 70 e4 ff ff ff 	movabs rbp,0xffffffffffffe470
    1b6d:	ff ff ff 
    1b70:	66 41 0f 61 f1       	punpcklwd xmm6,xmm9
    1b75:	66 45 0f 6f ca       	movdqa xmm9,xmm10
    1b7a:	66 0f 6f f8          	movdqa xmm7,xmm0
    1b7e:	48 89 ac 24 98 00 00 	mov    QWORD PTR [rsp+0x98],rbp
    1b85:	00 
    1b86:	66 44 0f 62 ce       	punpckldq xmm9,xmm6
    1b8b:	66 41 0f 62 fa       	punpckldq xmm7,xmm10
    1b90:	48 bd 90 e3 ff ff ff 	movabs rbp,0xffffffffffffe390
    1b97:	ff ff ff 
    1b9a:	0f 29 a4 24 00 01 00 	movaps XMMWORD PTR [rsp+0x100],xmm4
    1ba1:	00 
    1ba2:	66 45 0f 6f e9       	movdqa xmm13,xmm9
    1ba7:	66 0f 62 f0          	punpckldq xmm6,xmm0
    1bab:	48 8d 58 04          	lea    rbx,[rax+0x4]
    1baf:	0f 29 ac 24 a0 00 00 	movaps XMMWORD PTR [rsp+0xa0],xmm5
    1bb6:	00 
    1bb7:	66 44 0f 6c ef       	punpcklqdq xmm13,xmm7
    1bbc:	66 0f 6c fe          	punpcklqdq xmm7,xmm6
    1bc0:	66 41 0f 6c f1       	punpcklqdq xmm6,xmm9
    1bc5:	66 45 0f 6f f5       	movdqa xmm14,xmm13
    1bca:	66 46 0f 6f 6c 35 00 	movdqa xmm13,XMMWORD PTR [rbp+r14*1+0x0]
    1bd1:	48 bd a0 e3 ff ff ff 	movabs rbp,0xffffffffffffe3a0
    1bd8:	ff ff ff 
    1bdb:	4c 8d 50 0c          	lea    r10,[rax+0xc]
    1bdf:	66 42 0f 6f 44 35 00 	movdqa xmm0,XMMWORD PTR [rbp+r14*1+0x0]
    1be6:	48 bd b0 e3 ff ff ff 	movabs rbp,0xffffffffffffe3b0
    1bed:	ff ff ff 
    1bf0:	4c 8d 48 10          	lea    r9,[rax+0x10]
    1bf4:	4c 8d 40 14          	lea    r8,[rax+0x14]
    1bf8:	48 8d 78 18          	lea    rdi,[rax+0x18]
    1bfc:	48 8d 70 1c          	lea    rsi,[rax+0x1c]
    1c00:	66 41 0f 6f d7       	movdqa xmm2,xmm15
    1c05:	0f 29 44 24 20       	movaps XMMWORD PTR [rsp+0x20],xmm0
    1c0a:	66 42 0f 6f 44 35 00 	movdqa xmm0,XMMWORD PTR [rbp+r14*1+0x0]
    1c11:	48 bd c0 e3 ff ff ff 	movabs rbp,0xffffffffffffe3c0
    1c18:	ff ff ff 
    1c1b:	48 8d 48 20          	lea    rcx,[rax+0x20]
    1c1f:	66 0f 6f ce          	movdqa xmm1,xmm6
    1c23:	66 41 0f 6f e0       	movdqa xmm4,xmm8
    1c28:	0f 29 44 24 30       	movaps XMMWORD PTR [rsp+0x30],xmm0
    1c2d:	66 42 0f 6f 44 35 00 	movdqa xmm0,XMMWORD PTR [rbp+r14*1+0x0]
    1c34:	48 bd d0 e3 ff ff ff 	movabs rbp,0xffffffffffffe3d0
    1c3b:	ff ff ff 
    1c3e:	0f 29 44 24 40       	movaps XMMWORD PTR [rsp+0x40],xmm0
    1c43:	66 42 0f 6f 44 35 00 	movdqa xmm0,XMMWORD PTR [rbp+r14*1+0x0]
    1c4a:	48 bd e0 e3 ff ff ff 	movabs rbp,0xffffffffffffe3e0
    1c51:	ff ff ff 
    1c54:	0f 29 44 24 50       	movaps XMMWORD PTR [rsp+0x50],xmm0
    1c59:	66 42 0f 6f 44 35 00 	movdqa xmm0,XMMWORD PTR [rbp+r14*1+0x0]
    1c60:	48 bd f0 e3 ff ff ff 	movabs rbp,0xffffffffffffe3f0
    1c67:	ff ff ff 
    1c6a:	66 46 0f 6f 64 35 00 	movdqa xmm12,XMMWORD PTR [rbp+r14*1+0x0]
    1c71:	48 bd 00 e4 ff ff ff 	movabs rbp,0xffffffffffffe400
    1c78:	ff ff ff 
    1c7b:	66 46 0f 6f 5c 35 00 	movdqa xmm11,XMMWORD PTR [rbp+r14*1+0x0]
    1c82:	48 bd 10 e4 ff ff ff 	movabs rbp,0xffffffffffffe410
    1c89:	ff ff ff 
    1c8c:	0f 29 44 24 60       	movaps XMMWORD PTR [rsp+0x60],xmm0
    1c91:	66 46 0f 6f 54 35 00 	movdqa xmm10,XMMWORD PTR [rbp+r14*1+0x0]
    1c98:	48 bd 20 e4 ff ff ff 	movabs rbp,0xffffffffffffe420
    1c9f:	ff ff ff 
    1ca2:	66 46 0f 6f 4c 35 00 	movdqa xmm9,XMMWORD PTR [rbp+r14*1+0x0]
    1ca9:	f3 0f 6f 6a 10       	movdqu xmm5,XMMWORD PTR [rdx+0x10]
    1cae:	f3 44 0f 6f 7a 20    	movdqu xmm15,XMMWORD PTR [rdx+0x20]
    1cb4:	48 83 c0 40          	add    rax,0x40
    1cb8:	48 83 c2 40          	add    rdx,0x40
    1cbc:	f3 0f 6f 42 f0       	movdqu xmm0,XMMWORD PTR [rdx-0x10]
    1cc1:	48 83 c3 40          	add    rbx,0x40
    1cc5:	49 83 c3 40          	add    r11,0x40
    1cc9:	49 83 c2 40          	add    r10,0x40
    1ccd:	66 44 0f 6f c5       	movdqa xmm8,xmm5
    1cd2:	66 41 0f 6f f7       	movdqa xmm6,xmm15
    1cd7:	66 0f 38 00 6c 24 60 	pshufb xmm5,XMMWORD PTR [rsp+0x60]
    1cde:	49 83 c1 40          	add    r9,0x40
    1ce2:	66 0f 38 00 74 24 20 	pshufb xmm6,XMMWORD PTR [rsp+0x20]
    1ce9:	66 45 0f 38 00 c5    	pshufb xmm8,xmm13
    1cef:	66 0f 38 00 44 24 40 	pshufb xmm0,XMMWORD PTR [rsp+0x40]
    1cf6:	49 83 c0 40          	add    r8,0x40
    1cfa:	66 44 0f eb c6       	por    xmm8,xmm6
    1cff:	f3 0f 6f 72 c0       	movdqu xmm6,XMMWORD PTR [rdx-0x40]
    1d04:	66 44 0f 38 00 7c 24 	pshufb xmm15,XMMWORD PTR [rsp+0x30]
    1d0b:	30 
    1d0c:	48 83 c7 40          	add    rdi,0x40
    1d10:	66 44 0f eb f8       	por    xmm15,xmm0
    1d15:	66 0f 6f c5          	movdqa xmm0,xmm5
    1d19:	66 0f 6f e9          	movdqa xmm5,xmm1
    1d1d:	48 83 c6 40          	add    rsi,0x40
    1d21:	66 0f 38 00 74 24 50 	pshufb xmm6,XMMWORD PTR [rsp+0x50]
    1d28:	48 83 c1 40          	add    rcx,0x40
    1d2c:	66 0f eb c6          	por    xmm0,xmm6
    1d30:	66 0f 76 f6          	pcmpeqd xmm6,xmm6
    1d34:	66 0f 74 c6          	pcmpeqb xmm0,xmm6
    1d38:	66 0f 38 10 ac 24 a0 	pblendvb xmm5,XMMWORD PTR [rsp+0xa0],xmm0
    1d3f:	00 00 00 
    1d42:	66 41 0f 6f c0       	movdqa xmm0,xmm8
    1d47:	66 44 0f 6f c7       	movdqa xmm8,xmm7
    1d4c:	66 0f 74 c6          	pcmpeqb xmm0,xmm6
    1d50:	66 0f c5 ed 00       	pextrw ebp,xmm5,0x0
    1d55:	66 0f 3a 14 68 c2 02 	pextrb BYTE PTR [rax-0x3e],xmm5,0x2
    1d5c:	66 89 68 c0          	mov    WORD PTR [rax-0x40],bp
    1d60:	66 0f 3a 14 6b c2 05 	pextrb BYTE PTR [rbx-0x3e],xmm5,0x5
    1d67:	66 44 0f 38 10 c4    	pblendvb xmm8,xmm4,xmm0
    1d6d:	66 41 0f 6f c7       	movdqa xmm0,xmm15
    1d72:	66 0f 74 c6          	pcmpeqb xmm0,xmm6
    1d76:	66 41 0f 6f f6       	movdqa xmm6,xmm14
    1d7b:	66 0f 38 10 f2       	pblendvb xmm6,xmm2,xmm0
    1d80:	66 0f 6f c6          	movdqa xmm0,xmm6
    1d84:	66 0f 6f f5          	movdqa xmm6,xmm5
    1d88:	66 41 0f 38 00 f4    	pshufb xmm6,xmm12
    1d8e:	66 0f c5 ee 00       	pextrw ebp,xmm6,0x0
    1d93:	66 0f 6f f5          	movdqa xmm6,xmm5
    1d97:	66 89 6b c0          	mov    WORD PTR [rbx-0x40],bp
    1d9b:	66 41 0f 38 00 f3    	pshufb xmm6,xmm11
    1da1:	66 0f c5 ed 03       	pextrw ebp,xmm5,0x3
    1da6:	66 41 0f 3a 14 6b c2 	pextrb BYTE PTR [r11-0x3e],xmm5,0x8
    1dad:	08 
    1dae:	66 41 89 6b c0       	mov    WORD PTR [r11-0x40],bp
    1db3:	66 0f c5 ee 00       	pextrw ebp,xmm6,0x0
    1db8:	66 41 0f 6f f0       	movdqa xmm6,xmm8
    1dbd:	66 41 0f 3a 14 6a c2 	pextrb BYTE PTR [r10-0x3e],xmm5,0xb
    1dc4:	0b 
    1dc5:	66 41 89 6a c0       	mov    WORD PTR [r10-0x40],bp
    1dca:	66 41 0f 38 00 f1    	pshufb xmm6,xmm9
    1dd0:	66 41 0f 3a 14 69 c2 	pextrb BYTE PTR [r9-0x3e],xmm5,0xe
    1dd7:	0e 
    1dd8:	66 0f c5 ed 06       	pextrw ebp,xmm5,0x6
    1ddd:	66 41 0f 38 00 ea    	pshufb xmm5,xmm10
    1de3:	66 41 89 69 c0       	mov    WORD PTR [r9-0x40],bp
    1de8:	66 45 0f 3a 14 40 c2 	pextrb BYTE PTR [r8-0x3e],xmm8,0x1
    1def:	01 
    1df0:	66 0f eb ee          	por    xmm5,xmm6
    1df4:	66 0f c5 ed 00       	pextrw ebp,xmm5,0x0
    1df9:	66 41 0f 6f e8       	movdqa xmm5,xmm8
    1dfe:	66 41 89 68 c0       	mov    WORD PTR [r8-0x40],bp
    1e03:	66 41 0f c5 e8 01    	pextrw ebp,xmm8,0x1
    1e09:	66 44 0f 3a 14 47 c2 	pextrb BYTE PTR [rdi-0x3e],xmm8,0x4
    1e10:	04 
    1e11:	66 89 6f c0          	mov    WORD PTR [rdi-0x40],bp
    1e15:	48 8b 6c 24 78       	mov    rbp,QWORD PTR [rsp+0x78]
    1e1a:	66 44 0f 3a 14 46 c2 	pextrb BYTE PTR [rsi-0x3e],xmm8,0x7
    1e21:	07 
    1e22:	66 42 0f 38 00 6c 35 	pshufb xmm5,XMMWORD PTR [rbp+r14*1+0x0]
    1e29:	00 
    1e2a:	66 0f c5 ed 00       	pextrw ebp,xmm5,0x0
    1e2f:	66 41 0f 6f e8       	movdqa xmm5,xmm8
    1e34:	66 89 6e c0          	mov    WORD PTR [rsi-0x40],bp
    1e38:	66 41 0f c5 e8 04    	pextrw ebp,xmm8,0x4
    1e3e:	66 44 0f 3a 14 41 c2 	pextrb BYTE PTR [rcx-0x3e],xmm8,0xa
    1e45:	0a 
    1e46:	66 89 69 c0          	mov    WORD PTR [rcx-0x40],bp
    1e4a:	48 8b ac 24 80 00 00 	mov    rbp,QWORD PTR [rsp+0x80]
    1e51:	00 
    1e52:	66 42 0f 38 00 6c 35 	pshufb xmm5,XMMWORD PTR [rbp+r14*1+0x0]
    1e59:	00 
    1e5a:	66 0f c5 ed 00       	pextrw ebp,xmm5,0x0
    1e5f:	66 0f 6f e8          	movdqa xmm5,xmm0
    1e63:	66 89 68 e4          	mov    WORD PTR [rax-0x1c],bp
    1e67:	66 41 0f c5 e8 07    	pextrw ebp,xmm8,0x7
    1e6d:	66 44 0f 3a 14 40 e6 	pextrb BYTE PTR [rax-0x1a],xmm8,0xd
    1e74:	0d 
    1e75:	66 0f 3a 14 40 ea 00 	pextrb BYTE PTR [rax-0x16],xmm0,0x0
    1e7c:	66 89 68 e8          	mov    WORD PTR [rax-0x18],bp
    1e80:	48 8b ac 24 88 00 00 	mov    rbp,QWORD PTR [rsp+0x88]
    1e87:	00 
    1e88:	66 0f 3a 14 40 ee 03 	pextrb BYTE PTR [rax-0x12],xmm0,0x3
    1e8f:	66 0f 3a 14 40 f2 06 	pextrb BYTE PTR [rax-0xe],xmm0,0x6
    1e96:	66 0f 3a 14 40 f6 09 	pextrb BYTE PTR [rax-0xa],xmm0,0x9
    1e9d:	66 0f 3a 14 40 fa 0c 	pextrb BYTE PTR [rax-0x6],xmm0,0xc
    1ea4:	66 0f 3a 14 40 fe 0f 	pextrb BYTE PTR [rax-0x2],xmm0,0xf
    1eab:	66 42 0f 38 00 6c 35 	pshufb xmm5,XMMWORD PTR [rbp+r14*1+0x0]
    1eb2:	00 
    1eb3:	66 0f c5 ed 00       	pextrw ebp,xmm5,0x0
    1eb8:	66 0f 6f e8          	movdqa xmm5,xmm0
    1ebc:	66 89 68 ec          	mov    WORD PTR [rax-0x14],bp
    1ec0:	66 0f c5 e8 02       	pextrw ebp,xmm0,0x2
    1ec5:	66 89 68 f0          	mov    WORD PTR [rax-0x10],bp
    1ec9:	48 8b ac 24 90 00 00 	mov    rbp,QWORD PTR [rsp+0x90]
    1ed0:	00 
    1ed1:	66 42 0f 38 00 6c 35 	pshufb xmm5,XMMWORD PTR [rbp+r14*1+0x0]
    1ed8:	00 
    1ed9:	66 0f c5 ed 00       	pextrw ebp,xmm5,0x0
    1ede:	66 0f 6f e8          	movdqa xmm5,xmm0
    1ee2:	66 89 68 f4          	mov    WORD PTR [rax-0xc],bp
    1ee6:	66 0f c5 e8 05       	pextrw ebp,xmm0,0x5
    1eeb:	66 89 68 f8          	mov    WORD PTR [rax-0x8],bp
    1eef:	48 8b ac 24 98 00 00 	mov    rbp,QWORD PTR [rsp+0x98]
    1ef6:	00 
    1ef7:	66 42 0f 38 00 6c 35 	pshufb xmm5,XMMWORD PTR [rbp+r14*1+0x0]
    1efe:	00 
    1eff:	66 0f c5 ed 00       	pextrw ebp,xmm5,0x0
    1f04:	66 89 68 fc          	mov    WORD PTR [rax-0x4],bp
    1f08:	48 8b 6c 24 70       	mov    rbp,QWORD PTR [rsp+0x70]
    1f0d:	48 39 e8             	cmp    rax,rbp
    1f10:	0f 85 93 fd ff ff    	jne    1ca9 <graphics_drawchar+0x569>
    1f16:	48 8b 94 24 c0 00 00 	mov    rdx,QWORD PTR [rsp+0xc0]
    1f1d:	00 
    1f1e:	48 8b b4 24 28 01 00 	mov    rsi,QWORD PTR [rsp+0x128]
    1f25:	00 
    1f26:	66 0f 6f 94 24 e0 00 	movdqa xmm2,XMMWORD PTR [rsp+0xe0]
    1f2d:	00 00 
    1f2f:	66 0f 6f 8c 24 f0 00 	movdqa xmm1,XMMWORD PTR [rsp+0xf0]
    1f36:	00 00 
    1f38:	48 29 f2             	sub    rdx,rsi
    1f3b:	66 0f 6f a4 24 00 01 	movdqa xmm4,XMMWORD PTR [rsp+0x100]
    1f42:	00 00 
    1f44:	48 83 fa 07          	cmp    rdx,0x7
    1f48:	0f 86 fb 05 00 00    	jbe    2549 <graphics_drawchar+0xe09>
    1f4e:	48 8b 44 24 08       	mov    rax,QWORD PTR [rsp+0x8]
    1f53:	48 8b 1c 24          	mov    rbx,QWORD PTR [rsp]
    1f57:	49 8d 3c 34          	lea    rdi,[r12+rsi*1]
    1f5b:	48 83 e2 f8          	and    rdx,0xfffffffffffffff8
    1f5f:	48 01 f2             	add    rdx,rsi
    1f62:	48 01 f0             	add    rax,rsi
    1f65:	48 8d 4c 83 02       	lea    rcx,[rbx+rax*4+0x2]
    1f6a:	0f b6 84 24 d4 00 00 	movzx  eax,BYTE PTR [rsp+0xd4]
    1f71:	00 
    1f72:	0f b6 9c 24 12 01 00 	movzx  ebx,BYTE PTR [rsp+0x112]
    1f79:	00 
    1f7a:	f3 0f 7e 01          	movq   xmm0,QWORD PTR [rcx]
    1f7e:	f3 44 0f 7e 51 08    	movq   xmm10,QWORD PTR [rcx+0x8]
    1f84:	88 c4                	mov    ah,al
    1f86:	f3 44 0f 7e 59 18    	movq   xmm11,QWORD PTR [rcx+0x18]
    1f8c:	88 df                	mov    bh,bl
    1f8e:	66 0f 6e f8          	movd   xmm7,eax
    1f92:	0f b6 84 24 15 01 00 	movzx  eax,BYTE PTR [rsp+0x115]
    1f99:	00 
    1f9a:	66 0f 6e f3          	movd   xmm6,ebx
    1f9e:	0f b6 9c 24 16 01 00 	movzx  ebx,BYTE PTR [rsp+0x116]
    1fa5:	00 
    1fa6:	f2 44 0f 70 cf 00    	pshuflw xmm9,xmm7,0x0
    1fac:	f2 44 0f 70 c6 00    	pshuflw xmm8,xmm6,0x0
    1fb2:	88 c4                	mov    ah,al
    1fb4:	88 df                	mov    bh,bl
    1fb6:	66 0f 6e f8          	movd   xmm7,eax
    1fba:	49 8d 04 bf          	lea    rax,[r15+rdi*4]
    1fbe:	66 0f 6e f3          	movd   xmm6,ebx
    1fc2:	48 bf 60 e5 ff ff ff 	movabs rdi,0xffffffffffffe560
    1fc9:	ff ff ff 
    1fcc:	f3 41 0f 7e 2c 3e    	movq   xmm5,QWORD PTR [r14+rdi*1]
    1fd2:	f2 0f 70 f6 00       	pshuflw xmm6,xmm6,0x0
    1fd7:	48 bf 80 e4 ff ff ff 	movabs rdi,0xffffffffffffe480
    1fde:	ff ff ff 
    1fe1:	f2 0f 70 ff 00       	pshuflw xmm7,xmm7,0x0
    1fe6:	66 44 0f db d5       	pand   xmm10,xmm5
    1feb:	66 0f db c5          	pand   xmm0,xmm5
    1fef:	66 44 0f db dd       	pand   xmm11,xmm5
    1ff4:	66 41 0f 67 c2       	packuswb xmm0,xmm10
    1ff9:	f3 44 0f 7e 51 10    	movq   xmm10,QWORD PTR [rcx+0x10]
    1fff:	48 b9 68 e5 ff ff ff 	movabs rcx,0xffffffffffffe568
    2006:	ff ff ff 
    2009:	66 0f 70 c0 08       	pshufd xmm0,xmm0,0x8
    200e:	66 44 0f db d5       	pand   xmm10,xmm5
    2013:	66 0f db c5          	pand   xmm0,xmm5
    2017:	66 45 0f 67 d3       	packuswb xmm10,xmm11
    201c:	66 45 0f 70 d2 08    	pshufd xmm10,xmm10,0x8
    2022:	66 41 0f db ea       	pand   xmm5,xmm10
    2027:	66 0f 67 c5          	packuswb xmm0,xmm5
    202b:	f3 41 0f 7e 2c 0e    	movq   xmm5,QWORD PTR [r14+rcx*1]
    2031:	0f b6 4c 24 1c       	movzx  ecx,BYTE PTR [rsp+0x1c]
    2036:	66 0f 70 c0 08       	pshufd xmm0,xmm0,0x8
    203b:	66 0f 74 c5          	pcmpeqb xmm0,xmm5
    203f:	88 cd                	mov    ch,cl
    2041:	66 0f 6e e9          	movd   xmm5,ecx
    2045:	41 0f b6 cd          	movzx  ecx,r13b
    2049:	88 cd                	mov    ch,cl
    204b:	f2 44 0f 70 d5 00    	pshuflw xmm10,xmm5,0x0
    2051:	66 41 0f 38 10 f0    	pblendvb xmm6,xmm8,xmm0
    2057:	66 0f 6e e9          	movd   xmm5,ecx
    205b:	66 41 0f 38 10 f9    	pblendvb xmm7,xmm9,xmm0
    2061:	66 44 0f 6f c6       	movdqa xmm8,xmm6
    2066:	f2 0f 70 ed 00       	pshuflw xmm5,xmm5,0x0
    206b:	66 44 0f 6f e7       	movdqa xmm12,xmm7
    2070:	66 46 0f 38 00 04 37 	pshufb xmm8,XMMWORD PTR [rdi+r14*1]
    2077:	48 bf 70 e5 ff ff ff 	movabs rdi,0xffffffffffffe570
    207e:	ff ff ff 
    2081:	66 41 0f 38 10 ea    	pblendvb xmm5,xmm10,xmm0
    2087:	f3 41 0f 7e 04 3e    	movq   xmm0,QWORD PTR [r14+rdi*1]
    208d:	66 45 0f 38 10 e0    	pblendvb xmm12,xmm8,xmm0
    2093:	66 44 0f 6f c7       	movdqa xmm8,xmm7
    2098:	66 41 0f c5 fc 00    	pextrw edi,xmm12,0x0
    209e:	66 89 38             	mov    WORD PTR [rax],di
    20a1:	48 bf 90 e4 ff ff ff 	movabs rdi,0xffffffffffffe490
    20a8:	ff ff ff 
    20ab:	66 46 0f 38 00 04 37 	pshufb xmm8,XMMWORD PTR [rdi+r14*1]
    20b2:	48 bf 78 e5 ff ff ff 	movabs rdi,0xffffffffffffe578
    20b9:	ff ff ff 
    20bc:	f3 41 0f 7e 04 3e    	movq   xmm0,QWORD PTR [r14+rdi*1]
    20c2:	66 44 0f 38 10 c6    	pblendvb xmm8,xmm6,xmm0
    20c8:	66 0f 6f c7          	movdqa xmm0,xmm7
    20cc:	66 41 0f c5 f8 00    	pextrw edi,xmm8,0x0
    20d2:	66 44 0f 6f c6       	movdqa xmm8,xmm6
    20d7:	66 89 78 04          	mov    WORD PTR [rax+0x4],di
    20db:	48 bf a0 e4 ff ff ff 	movabs rdi,0xffffffffffffe4a0
    20e2:	ff ff ff 
    20e5:	66 42 0f 38 00 04 37 	pshufb xmm0,XMMWORD PTR [rdi+r14*1]
    20ec:	48 bf b0 e4 ff ff ff 	movabs rdi,0xffffffffffffe4b0
    20f3:	ff ff ff 
    20f6:	66 46 0f 38 00 04 37 	pshufb xmm8,XMMWORD PTR [rdi+r14*1]
    20fd:	66 41 0f eb c0       	por    xmm0,xmm8
    2102:	66 44 0f 6f c6       	movdqa xmm8,xmm6
    2107:	66 0f c5 f8 00       	pextrw edi,xmm0,0x0
    210c:	66 0f 6f c7          	movdqa xmm0,xmm7
    2110:	66 89 78 08          	mov    WORD PTR [rax+0x8],di
    2114:	48 bf c0 e4 ff ff ff 	movabs rdi,0xffffffffffffe4c0
    211b:	ff ff ff 
    211e:	66 42 0f 38 00 04 37 	pshufb xmm0,XMMWORD PTR [rdi+r14*1]
    2125:	48 bf d0 e4 ff ff ff 	movabs rdi,0xffffffffffffe4d0
    212c:	ff ff ff 
    212f:	66 46 0f 38 00 04 37 	pshufb xmm8,XMMWORD PTR [rdi+r14*1]
    2136:	66 41 0f eb c0       	por    xmm0,xmm8
    213b:	66 44 0f 6f c6       	movdqa xmm8,xmm6
    2140:	66 0f c5 f8 00       	pextrw edi,xmm0,0x0
    2145:	66 0f 6f c7          	movdqa xmm0,xmm7
    2149:	66 89 78 0c          	mov    WORD PTR [rax+0xc],di
    214d:	48 bf e0 e4 ff ff ff 	movabs rdi,0xffffffffffffe4e0
    2154:	ff ff ff 
    2157:	66 42 0f 38 00 04 37 	pshufb xmm0,XMMWORD PTR [rdi+r14*1]
    215e:	48 bf f0 e4 ff ff ff 	movabs rdi,0xffffffffffffe4f0
    2165:	ff ff ff 
    2168:	66 46 0f 38 00 04 37 	pshufb xmm8,XMMWORD PTR [rdi+r14*1]
    216f:	66 41 0f eb c0       	por    xmm0,xmm8
    2174:	66 44 0f 6f c6       	movdqa xmm8,xmm6
    2179:	66 0f c5 f8 00       	pextrw edi,xmm0,0x0
    217e:	66 0f 6f c7          	movdqa xmm0,xmm7
    2182:	66 89 78 10          	mov    WORD PTR [rax+0x10],di
    2186:	48 bf 00 e5 ff ff ff 	movabs rdi,0xffffffffffffe500
    218d:	ff ff ff 
    2190:	66 42 0f 38 00 04 37 	pshufb xmm0,XMMWORD PTR [rdi+r14*1]
    2197:	48 bf 10 e5 ff ff ff 	movabs rdi,0xffffffffffffe510
    219e:	ff ff ff 
    21a1:	66 46 0f 38 00 04 37 	pshufb xmm8,XMMWORD PTR [rdi+r14*1]
    21a8:	66 41 0f eb c0       	por    xmm0,xmm8
    21ad:	66 44 0f 6f c6       	movdqa xmm8,xmm6
    21b2:	66 0f c5 f8 00       	pextrw edi,xmm0,0x0
    21b7:	66 0f 6f c7          	movdqa xmm0,xmm7
    21bb:	66 89 78 14          	mov    WORD PTR [rax+0x14],di
    21bf:	48 bf 20 e5 ff ff ff 	movabs rdi,0xffffffffffffe520
    21c6:	ff ff ff 
    21c9:	66 42 0f 38 00 04 37 	pshufb xmm0,XMMWORD PTR [rdi+r14*1]
    21d0:	48 bf 30 e5 ff ff ff 	movabs rdi,0xffffffffffffe530
    21d7:	ff ff ff 
    21da:	66 46 0f 38 00 04 37 	pshufb xmm8,XMMWORD PTR [rdi+r14*1]
    21e1:	66 0f 3a 14 68 02 00 	pextrb BYTE PTR [rax+0x2],xmm5,0x0
    21e8:	66 0f 3a 14 68 06 01 	pextrb BYTE PTR [rax+0x6],xmm5,0x1
    21ef:	66 0f 3a 14 68 0a 02 	pextrb BYTE PTR [rax+0xa],xmm5,0x2
    21f6:	66 41 0f eb c0       	por    xmm0,xmm8
    21fb:	66 0f 3a 14 68 0e 03 	pextrb BYTE PTR [rax+0xe],xmm5,0x3
    2202:	66 0f 3a 14 68 12 04 	pextrb BYTE PTR [rax+0x12],xmm5,0x4
    2209:	66 0f 3a 14 68 16 05 	pextrb BYTE PTR [rax+0x16],xmm5,0x5
    2210:	66 0f c5 f8 00       	pextrw edi,xmm0,0x0
    2215:	66 0f 3a 14 68 1a 06 	pextrb BYTE PTR [rax+0x1a],xmm5,0x6
    221c:	66 0f 3a 14 68 1e 07 	pextrb BYTE PTR [rax+0x1e],xmm5,0x7
    2223:	66 89 78 18          	mov    WORD PTR [rax+0x18],di
    2227:	48 bf 40 e5 ff ff ff 	movabs rdi,0xffffffffffffe540
    222e:	ff ff ff 
    2231:	66 42 0f 38 00 3c 37 	pshufb xmm7,XMMWORD PTR [rdi+r14*1]
    2238:	48 bf 50 e5 ff ff ff 	movabs rdi,0xffffffffffffe550
    223f:	ff ff ff 
    2242:	66 42 0f 38 00 34 37 	pshufb xmm6,XMMWORD PTR [rdi+r14*1]
    2249:	66 0f 6f c7          	movdqa xmm0,xmm7
    224d:	66 0f eb c6          	por    xmm0,xmm6
    2251:	66 0f c5 f8 00       	pextrw edi,xmm0,0x0
    2256:	66 89 78 1c          	mov    WORD PTR [rax+0x1c],di
    225a:	48 8b 74 24 08       	mov    rsi,QWORD PTR [rsp+0x8]
    225f:	48 8b 1c 24          	mov    rbx,QWORD PTR [rsp]
    2263:	49 8d 04 14          	lea    rax,[r12+rdx*1]
    2267:	49 8d 04 87          	lea    rax,[r15+rax*4]
    226b:	48 8d 0c 32          	lea    rcx,[rdx+rsi*1]
    226f:	80 7c 8b 02 ff       	cmp    BYTE PTR [rbx+rcx*4+0x2],0xff
    2274:	0f 84 f6 01 00 00    	je     2470 <graphics_drawchar+0xd30>
    227a:	66 0f 7e de          	movd   esi,xmm3
    227e:	44 89 e9             	mov    ecx,r13d
    2281:	66 89 30             	mov    WORD PTR [rax],si
    2284:	48 8b 74 24 10       	mov    rsi,QWORD PTR [rsp+0x10]
    2289:	88 48 02             	mov    BYTE PTR [rax+0x2],cl
    228c:	48 8d 42 01          	lea    rax,[rdx+0x1]
    2290:	48 39 f0             	cmp    rax,rsi
    2293:	0f 83 c7 01 00 00    	jae    2460 <graphics_drawchar+0xd20>
    2299:	48 8b 5c 24 08       	mov    rbx,QWORD PTR [rsp+0x8]
    229e:	49 8d 0c 04          	lea    rcx,[r12+rax*1]
    22a2:	49 8d 0c 8f          	lea    rcx,[r15+rcx*4]
    22a6:	48 01 d8             	add    rax,rbx
    22a9:	48 8b 1c 24          	mov    rbx,QWORD PTR [rsp]
    22ad:	80 7c 83 02 ff       	cmp    BYTE PTR [rbx+rax*4+0x2],0xff
    22b2:	0f 84 d0 01 00 00    	je     2488 <graphics_drawchar+0xd48>
    22b8:	66 0f 7e de          	movd   esi,xmm3
    22bc:	44 89 e8             	mov    eax,r13d
    22bf:	66 89 31             	mov    WORD PTR [rcx],si
    22c2:	48 8b 74 24 10       	mov    rsi,QWORD PTR [rsp+0x10]
    22c7:	88 41 02             	mov    BYTE PTR [rcx+0x2],al
    22ca:	48 8d 42 02          	lea    rax,[rdx+0x2]
    22ce:	48 39 f0             	cmp    rax,rsi
    22d1:	0f 83 89 01 00 00    	jae    2460 <graphics_drawchar+0xd20>
    22d7:	48 8b 5c 24 08       	mov    rbx,QWORD PTR [rsp+0x8]
    22dc:	48 8b 34 24          	mov    rsi,QWORD PTR [rsp]
    22e0:	49 8d 0c 04          	lea    rcx,[r12+rax*1]
    22e4:	49 8d 0c 8f          	lea    rcx,[r15+rcx*4]
    22e8:	48 01 d8             	add    rax,rbx
    22eb:	80 7c 86 02 ff       	cmp    BYTE PTR [rsi+rax*4+0x2],0xff
    22f0:	0f 84 aa 01 00 00    	je     24a0 <graphics_drawchar+0xd60>
    22f6:	66 0f 7e de          	movd   esi,xmm3
    22fa:	44 89 e8             	mov    eax,r13d
    22fd:	48 8b 5c 24 10       	mov    rbx,QWORD PTR [rsp+0x10]
    2302:	88 41 02             	mov    BYTE PTR [rcx+0x2],al
    2305:	48 8d 42 03          	lea    rax,[rdx+0x3]
    2309:	66 89 31             	mov    WORD PTR [rcx],si
    230c:	48 39 d8             	cmp    rax,rbx
    230f:	0f 83 03 02 00 00    	jae    2518 <graphics_drawchar+0xdd8>
    2315:	48 8b 74 24 08       	mov    rsi,QWORD PTR [rsp+0x8]
    231a:	48 8b 1c 24          	mov    rbx,QWORD PTR [rsp]
    231e:	49 8d 0c 04          	lea    rcx,[r12+rax*1]
    2322:	49 8d 0c 8f          	lea    rcx,[r15+rcx*4]
    2326:	48 01 f0             	add    rax,rsi
    2329:	80 7c 83 02 ff       	cmp    BYTE PTR [rbx+rax*4+0x2],0xff
    232e:	0f 84 84 01 00 00    	je     24b8 <graphics_drawchar+0xd78>
    2334:	66 0f 7e de          	movd   esi,xmm3
    2338:	44 89 e8             	mov    eax,r13d
    233b:	66 89 31             	mov    WORD PTR [rcx],si
    233e:	48 8b 74 24 10       	mov    rsi,QWORD PTR [rsp+0x10]
    2343:	88 41 02             	mov    BYTE PTR [rcx+0x2],al
    2346:	48 8d 42 04          	lea    rax,[rdx+0x4]
    234a:	48 39 f0             	cmp    rax,rsi
    234d:	0f 83 0d 01 00 00    	jae    2460 <graphics_drawchar+0xd20>
    2353:	48 8b 5c 24 08       	mov    rbx,QWORD PTR [rsp+0x8]
    2358:	48 8b 34 24          	mov    rsi,QWORD PTR [rsp]
    235c:	49 8d 0c 04          	lea    rcx,[r12+rax*1]
    2360:	49 8d 0c 8f          	lea    rcx,[r15+rcx*4]
    2364:	48 01 d8             	add    rax,rbx
    2367:	80 7c 86 02 ff       	cmp    BYTE PTR [rsi+rax*4+0x2],0xff
    236c:	0f 84 5e 01 00 00    	je     24d0 <graphics_drawchar+0xd90>
    2372:	66 0f 7e de          	movd   esi,xmm3
    2376:	44 89 e8             	mov    eax,r13d
    2379:	48 8b 5c 24 10       	mov    rbx,QWORD PTR [rsp+0x10]
    237e:	88 41 02             	mov    BYTE PTR [rcx+0x2],al
    2381:	48 8d 42 05          	lea    rax,[rdx+0x5]
    2385:	66 89 31             	mov    WORD PTR [rcx],si
    2388:	48 39 d8             	cmp    rax,rbx
    238b:	0f 83 87 01 00 00    	jae    2518 <graphics_drawchar+0xdd8>
    2391:	48 8b 74 24 08       	mov    rsi,QWORD PTR [rsp+0x8]
    2396:	48 8b 1c 24          	mov    rbx,QWORD PTR [rsp]
    239a:	49 8d 0c 04          	lea    rcx,[r12+rax*1]
    239e:	49 8d 0c 8f          	lea    rcx,[r15+rcx*4]
    23a2:	48 01 f0             	add    rax,rsi
    23a5:	80 7c 83 02 ff       	cmp    BYTE PTR [rbx+rax*4+0x2],0xff
    23aa:	0f 84 38 01 00 00    	je     24e8 <graphics_drawchar+0xda8>
    23b0:	66 0f 7e de          	movd   esi,xmm3
    23b4:	44 89 e8             	mov    eax,r13d
    23b7:	66 89 31             	mov    WORD PTR [rcx],si
    23ba:	48 8b 74 24 10       	mov    rsi,QWORD PTR [rsp+0x10]
    23bf:	88 41 02             	mov    BYTE PTR [rcx+0x2],al
    23c2:	48 8d 42 06          	lea    rax,[rdx+0x6]
    23c6:	48 39 f0             	cmp    rax,rsi
    23c9:	0f 83 91 00 00 00    	jae    2460 <graphics_drawchar+0xd20>
    23cf:	48 8b 5c 24 08       	mov    rbx,QWORD PTR [rsp+0x8]
    23d4:	48 8b 34 24          	mov    rsi,QWORD PTR [rsp]
    23d8:	49 8d 0c 04          	lea    rcx,[r12+rax*1]
    23dc:	49 8d 0c 8f          	lea    rcx,[r15+rcx*4]
    23e0:	48 01 d8             	add    rax,rbx
    23e3:	80 7c 86 02 ff       	cmp    BYTE PTR [rsi+rax*4+0x2],0xff
    23e8:	0f 84 12 01 00 00    	je     2500 <graphics_drawchar+0xdc0>
    23ee:	66 0f 7e de          	movd   esi,xmm3
    23f2:	44 89 e8             	mov    eax,r13d
    23f5:	88 41 02             	mov    BYTE PTR [rcx+0x2],al
    23f8:	48 8b 44 24 10       	mov    rax,QWORD PTR [rsp+0x10]
    23fd:	48 83 c2 07          	add    rdx,0x7
    2401:	66 89 31             	mov    WORD PTR [rcx],si
    2404:	48 39 c2             	cmp    rdx,rax
    2407:	73 31                	jae    243a <graphics_drawchar+0xcfa>
    2409:	48 8b 5c 24 08       	mov    rbx,QWORD PTR [rsp+0x8]
    240e:	48 8b 34 24          	mov    rsi,QWORD PTR [rsp]
    2412:	49 8d 04 14          	lea    rax,[r12+rdx*1]
    2416:	49 8d 04 87          	lea    rax,[r15+rax*4]
    241a:	48 01 da             	add    rdx,rbx
    241d:	80 7c 96 02 ff       	cmp    BYTE PTR [rsi+rdx*4+0x2],0xff
    2422:	0f 84 00 01 00 00    	je     2528 <graphics_drawchar+0xde8>
    2428:	66 0f 7e d9          	movd   ecx,xmm3
    242c:	44 89 ea             	mov    edx,r13d
    242f:	66 89 08             	mov    WORD PTR [rax],cx
    2432:	88 50 02             	mov    BYTE PTR [rax+0x2],dl
    2435:	48 8b 44 24 10       	mov    rax,QWORD PTR [rsp+0x10]
    243a:	4a 8d 34 20          	lea    rsi,[rax+r12*1]
    243e:	e9 63 f5 ff ff       	jmp    19a6 <graphics_drawchar+0x266>
    2443:	0f 1f 44 00 00       	nop    DWORD PTR [rax+rax*1+0x0]
    2448:	4a 8d 04 a5 00 00 00 	lea    rax,[r12*4+0x0]
    244f:	00 
    2450:	48 89 84 24 b8 00 00 	mov    QWORD PTR [rsp+0xb8],rax
    2457:	00 
    2458:	e9 f7 f4 ff ff       	jmp    1954 <graphics_drawchar+0x214>
    245d:	0f 1f 00             	nop    DWORD PTR [rax]
    2460:	4a 8d 34 26          	lea    rsi,[rsi+r12*1]
    2464:	e9 3d f5 ff ff       	jmp    19a6 <graphics_drawchar+0x266>
    2469:	0f 1f 80 00 00 00 00 	nop    DWORD PTR [rax+0x0]
    2470:	0f b7 b4 24 d2 00 00 	movzx  esi,WORD PTR [rsp+0xd2]
    2477:	00 
    2478:	0f b6 4c 24 1c       	movzx  ecx,BYTE PTR [rsp+0x1c]
    247d:	e9 ff fd ff ff       	jmp    2281 <graphics_drawchar+0xb41>
    2482:	66 0f 1f 44 00 00    	nop    WORD PTR [rax+rax*1+0x0]
    2488:	0f b7 b4 24 d2 00 00 	movzx  esi,WORD PTR [rsp+0xd2]
    248f:	00 
    2490:	0f b6 44 24 1c       	movzx  eax,BYTE PTR [rsp+0x1c]
    2495:	e9 25 fe ff ff       	jmp    22bf <graphics_drawchar+0xb7f>
    249a:	66 0f 1f 44 00 00    	nop    WORD PTR [rax+rax*1+0x0]
    24a0:	0f b7 b4 24 d2 00 00 	movzx  esi,WORD PTR [rsp+0xd2]
    24a7:	00 
    24a8:	0f b6 44 24 1c       	movzx  eax,BYTE PTR [rsp+0x1c]
    24ad:	e9 4b fe ff ff       	jmp    22fd <graphics_drawchar+0xbbd>
    24b2:	66 0f 1f 44 00 00    	nop    WORD PTR [rax+rax*1+0x0]
    24b8:	0f b7 b4 24 d2 00 00 	movzx  esi,WORD PTR [rsp+0xd2]
    24bf:	00 
    24c0:	0f b6 44 24 1c       	movzx  eax,BYTE PTR [rsp+0x1c]
    24c5:	e9 71 fe ff ff       	jmp    233b <graphics_drawchar+0xbfb>
    24ca:	66 0f 1f 44 00 00    	nop    WORD PTR [rax+rax*1+0x0]
    24d0:	0f b7 b4 24 d2 00 00 	movzx  esi,WORD PTR [rsp+0xd2]
    24d7:	00 
    24d8:	0f b6 44 24 1c       	movzx  eax,BYTE PTR [rsp+0x1c]
    24dd:	e9 97 fe ff ff       	jmp    2379 <graphics_drawchar+0xc39>
    24e2:	66 0f 1f 44 00 00    	nop    WORD PTR [rax+rax*1+0x0]
    24e8:	0f b7 b4 24 d2 00 00 	movzx  esi,WORD PTR [rsp+0xd2]
    24ef:	00 
    24f0:	0f b6 44 24 1c       	movzx  eax,BYTE PTR [rsp+0x1c]
    24f5:	e9 bd fe ff ff       	jmp    23b7 <graphics_drawchar+0xc77>
    24fa:	66 0f 1f 44 00 00    	nop    WORD PTR [rax+rax*1+0x0]
    2500:	0f b7 b4 24 d2 00 00 	movzx  esi,WORD PTR [rsp+0xd2]
    2507:	00 
    2508:	0f b6 44 24 1c       	movzx  eax,BYTE PTR [rsp+0x1c]
    250d:	e9 e3 fe ff ff       	jmp    23f5 <graphics_drawchar+0xcb5>
    2512:	66 0f 1f 44 00 00    	nop    WORD PTR [rax+rax*1+0x0]
    2518:	4a 8d 34 23          	lea    rsi,[rbx+r12*1]
    251c:	e9 85 f4 ff ff       	jmp    19a6 <graphics_drawchar+0x266>
    2521:	0f 1f 80 00 00 00 00 	nop    DWORD PTR [rax+0x0]
    2528:	0f b7 8c 24 d2 00 00 	movzx  ecx,WORD PTR [rsp+0xd2]
    252f:	00 
    2530:	0f b6 54 24 1c       	movzx  edx,BYTE PTR [rsp+0x1c]
    2535:	e9 f5 fe ff ff       	jmp    242f <graphics_drawchar+0xcef>
    253a:	48 8b 94 24 c0 00 00 	mov    rdx,QWORD PTR [rsp+0xc0]
    2541:	00 
    2542:	31 f6                	xor    esi,esi
    2544:	e9 05 fa ff ff       	jmp    1f4e <graphics_drawchar+0x80e>
    2549:	48 89 f2             	mov    rdx,rsi
    254c:	e9 09 fd ff ff       	jmp    225a <graphics_drawchar+0xb1a>
    2551:	66 2e 0f 1f 84 00 00 	cs nop WORD PTR [rax+rax*1+0x0]
    2558:	00 00 00 
    255b:	0f 1f 44 00 00       	nop    DWORD PTR [rax+rax*1+0x0]

0000000000002560 <idt_setup>:
    2560:	41 57                	push   r15
    2562:	49 bb 30 72 00 00 00 	movabs r11,0x7230
    2569:	00 00 00 
    256c:	4c 8d 3d ed ff ff ff 	lea    r15,[rip+0xffffffffffffffed]        # 2560 <idt_setup>
    2573:	48 b8 80 e5 ff ff ff 	movabs rax,0xffffffffffffe580
    257a:	ff ff ff 
    257d:	4d 01 df             	add    r15,r11
    2580:	49 8d 3c 07          	lea    rdi,[r15+rax*1]
    2584:	31 c0                	xor    eax,eax
    2586:	53                   	push   rbx
    2587:	48 bb c1 c1 ff ff ff 	movabs rbx,0xffffffffffffc1c1
    258e:	ff ff ff 
    2591:	4a 8d 14 3b          	lea    rdx,[rbx+r15*1]
    2595:	48 83 ec 08          	sub    rsp,0x8
    2599:	ff d2                	call   rdx
    259b:	48 be 40 00 00 00 00 	movabs rsi,0x40
    25a2:	00 00 00 
    25a5:	b8 ff 0f 00 00       	mov    eax,0xfff
    25aa:	49 b9 d8 ff ff ff ff 	movabs r9,0xffffffffffffffd8
    25b1:	ff ff ff 
    25b4:	66 42 89 04 3e       	mov    WORD PTR [rsi+r15*1],ax
    25b9:	48 b8 70 18 00 00 00 	movabs rax,0x1870
    25c0:	00 00 00 
    25c3:	4b 8b 14 39          	mov    rdx,QWORD PTR [r9+r15*1]
    25c7:	49 b8 a0 e5 ff ff ff 	movabs r8,0xffffffffffffe5a0
    25ce:	ff ff ff 
    25d1:	49 8d 0c 07          	lea    rcx,[r15+rax*1]
    25d5:	66 43 0f 6f 24 38    	movdqa xmm4,XMMWORD PTR [r8+r15*1]
    25db:	4a 89 4c 3e 02       	mov    QWORD PTR [rsi+r15*1+0x2],rcx
    25e0:	48 8d ba 00 01 00 00 	lea    rdi,[rdx+0x100]
    25e7:	48 89 c8             	mov    rax,rcx
    25ea:	f3 44 0f 6f 2a       	movdqu xmm13,XMMWORD PTR [rdx]
    25ef:	f3 44 0f 6f 5a 20    	movdqu xmm11,XMMWORD PTR [rdx+0x20]
    25f5:	41 ba 08 00 00 00    	mov    r10d,0x8
    25fb:	41 bb 08 00 00 00    	mov    r11d,0x8
    2601:	f3 44 0f 6f 62 10    	movdqu xmm12,XMMWORD PTR [rdx+0x10]
    2607:	f3 44 0f 6f 52 30    	movdqu xmm10,XMMWORD PTR [rdx+0x30]
    260d:	66 0f 6f dc          	movdqa xmm3,xmm4
    2611:	66 0f 6f c4          	movdqa xmm0,xmm4
    2615:	f3 44 0f 6f 4a 40    	movdqu xmm9,XMMWORD PTR [rdx+0x40]
    261b:	f3 0f 6f 7a 60       	movdqu xmm7,XMMWORD PTR [rdx+0x60]
    2620:	66 41 0f 6f cd       	movdqa xmm1,xmm13
    2625:	66 45 0f 6f f3       	movdqa xmm14,xmm11
    262a:	f3 44 0f 6f 42 50    	movdqu xmm8,XMMWORD PTR [rdx+0x50]
    2630:	f3 0f 6f 72 70       	movdqu xmm6,XMMWORD PTR [rdx+0x70]
    2635:	41 0f c6 cc 88       	shufps xmm1,xmm12,0x88
    263a:	66 44 89 50 02       	mov    WORD PTR [rax+0x2],r10w
    263f:	66 44 89 58 12       	mov    WORD PTR [rax+0x12],r11w
    2644:	45 0f c6 f2 88       	shufps xmm14,xmm10,0x88
    2649:	66 0f db d9          	pand   xmm3,xmm1
    264d:	66 41 0f db c6       	pand   xmm0,xmm14
    2652:	41 ba 08 00 00 00    	mov    r10d,0x8
    2658:	41 bb 08 00 00 00    	mov    r11d,0x8
    265e:	66 0f 38 2b d8       	packusdw xmm3,xmm0
    2663:	48 83 ea 80          	sub    rdx,0xffffffffffffff80
    2667:	66 44 89 50 22       	mov    WORD PTR [rax+0x22],r10w
    266c:	66 41 0f 6f c1       	movdqa xmm0,xmm9
    2671:	66 0f 6f ef          	movdqa xmm5,xmm7
    2675:	41 ba 08 00 00 00    	mov    r10d,0x8
    267b:	66 44 89 58 32       	mov    WORD PTR [rax+0x32],r11w
    2680:	66 0f 6f d4          	movdqa xmm2,xmm4
    2684:	41 bb 08 00 00 00    	mov    r11d,0x8
    268a:	66 44 0f 6f fc       	movdqa xmm15,xmm4
    268f:	66 44 89 50 42       	mov    WORD PTR [rax+0x42],r10w
    2694:	41 0f c6 c0 88       	shufps xmm0,xmm8,0x88
    2699:	0f c6 ee 88          	shufps xmm5,xmm6,0x88
    269d:	66 0f db d0          	pand   xmm2,xmm0
    26a1:	66 44 89 58 52       	mov    WORD PTR [rax+0x52],r11w
    26a6:	66 44 0f db fd       	pand   xmm15,xmm5
    26ab:	41 ba 08 00 00 00    	mov    r10d,0x8
    26b1:	41 bb 08 00 00 00    	mov    r11d,0x8
    26b7:	66 41 0f 38 2b d7    	packusdw xmm2,xmm15
    26bd:	66 44 89 50 62       	mov    WORD PTR [rax+0x62],r10w
    26c2:	41 ba 08 00 00 00    	mov    r10d,0x8
    26c8:	66 0f 3a 15 18 00    	pextrw WORD PTR [rax],xmm3,0x0
    26ce:	66 44 89 58 72       	mov    WORD PTR [rax+0x72],r11w
    26d3:	41 bb 08 00 00 00    	mov    r11d,0x8
    26d9:	66 0f 3a 15 58 10 01 	pextrw WORD PTR [rax+0x10],xmm3,0x1
    26e0:	66 0f 3a 15 58 20 02 	pextrw WORD PTR [rax+0x20],xmm3,0x2
    26e7:	66 0f 3a 15 58 30 03 	pextrw WORD PTR [rax+0x30],xmm3,0x3
    26ee:	66 0f 3a 15 58 40 04 	pextrw WORD PTR [rax+0x40],xmm3,0x4
    26f5:	66 0f 3a 15 58 50 05 	pextrw WORD PTR [rax+0x50],xmm3,0x5
    26fc:	66 0f 3a 15 58 60 06 	pextrw WORD PTR [rax+0x60],xmm3,0x6
    2703:	66 0f 3a 15 58 70 07 	pextrw WORD PTR [rax+0x70],xmm3,0x7
    270a:	66 0f 3a 15 90 80 00 	pextrw WORD PTR [rax+0x80],xmm2,0x0
    2711:	00 00 00 
    2714:	66 0f 3a 15 90 90 00 	pextrw WORD PTR [rax+0x90],xmm2,0x1
    271b:	00 00 01 
    271e:	66 0f 3a 15 90 a0 00 	pextrw WORD PTR [rax+0xa0],xmm2,0x2
    2725:	00 00 02 
    2728:	66 0f 3a 15 90 b0 00 	pextrw WORD PTR [rax+0xb0],xmm2,0x3
    272f:	00 00 03 
    2732:	66 0f 3a 15 90 c0 00 	pextrw WORD PTR [rax+0xc0],xmm2,0x4
    2739:	00 00 04 
    273c:	66 0f 3a 15 90 d0 00 	pextrw WORD PTR [rax+0xd0],xmm2,0x5
    2743:	00 00 05 
    2746:	66 0f 3a 15 90 e0 00 	pextrw WORD PTR [rax+0xe0],xmm2,0x6
    274d:	00 00 06 
    2750:	66 0f 3a 15 90 f0 00 	pextrw WORD PTR [rax+0xf0],xmm2,0x7
    2757:	00 00 07 
    275a:	66 44 89 90 82 00 00 	mov    WORD PTR [rax+0x82],r10w
    2761:	00 
    2762:	41 ba 08 00 00 00    	mov    r10d,0x8
    2768:	66 0f 72 d1 10       	psrld  xmm1,0x10
    276d:	66 44 89 98 92 00 00 	mov    WORD PTR [rax+0x92],r11w
    2774:	00 
    2775:	41 bb 08 00 00 00    	mov    r11d,0x8
    277b:	66 41 0f 72 d6 10    	psrld  xmm14,0x10
    2781:	66 0f db cc          	pand   xmm1,xmm4
    2785:	66 44 89 90 a2 00 00 	mov    WORD PTR [rax+0xa2],r10w
    278c:	00 
    278d:	41 ba 08 00 00 00    	mov    r10d,0x8
    2793:	66 0f 72 d0 10       	psrld  xmm0,0x10
    2798:	66 44 0f db f4       	pand   xmm14,xmm4
    279d:	66 44 89 98 b2 00 00 	mov    WORD PTR [rax+0xb2],r11w
    27a4:	00 
    27a5:	41 bb 08 00 00 00    	mov    r11d,0x8
    27ab:	66 0f 72 d5 10       	psrld  xmm5,0x10
    27b0:	66 0f db c4          	pand   xmm0,xmm4
    27b4:	66 44 89 90 c2 00 00 	mov    WORD PTR [rax+0xc2],r10w
    27bb:	00 
    27bc:	41 ba 08 00 00 00    	mov    r10d,0x8
    27c2:	66 0f db ec          	pand   xmm5,xmm4
    27c6:	66 41 0f 38 2b ce    	packusdw xmm1,xmm14
    27cc:	66 44 89 98 d2 00 00 	mov    WORD PTR [rax+0xd2],r11w
    27d3:	00 
    27d4:	41 bb 08 00 00 00    	mov    r11d,0x8
    27da:	66 0f 38 2b c5       	packusdw xmm0,xmm5
    27df:	66 0f 3a 15 48 06 00 	pextrw WORD PTR [rax+0x6],xmm1,0x0
    27e6:	66 44 89 90 e2 00 00 	mov    WORD PTR [rax+0xe2],r10w
    27ed:	00 
    27ee:	41 ba 00 8e ff ff    	mov    r10d,0xffff8e00
    27f4:	66 41 0f 73 d5 20    	psrlq  xmm13,0x20
    27fa:	66 0f 3a 15 48 16 01 	pextrw WORD PTR [rax+0x16],xmm1,0x1
    2801:	66 44 89 98 f2 00 00 	mov    WORD PTR [rax+0xf2],r11w
    2808:	00 
    2809:	41 bb 00 8e ff ff    	mov    r11d,0xffff8e00
    280f:	66 41 0f 73 d4 20    	psrlq  xmm12,0x20
    2815:	66 0f 3a 15 48 26 02 	pextrw WORD PTR [rax+0x26],xmm1,0x2
    281c:	66 44 89 50 04       	mov    WORD PTR [rax+0x4],r10w
    2821:	41 ba 00 8e ff ff    	mov    r10d,0xffff8e00
    2827:	66 41 0f 73 d3 20    	psrlq  xmm11,0x20
    282d:	66 0f 3a 15 48 36 03 	pextrw WORD PTR [rax+0x36],xmm1,0x3
    2834:	66 44 89 58 14       	mov    WORD PTR [rax+0x14],r11w
    2839:	41 bb 00 8e ff ff    	mov    r11d,0xffff8e00
    283f:	66 41 0f 73 d2 20    	psrlq  xmm10,0x20
    2845:	66 0f 3a 15 48 46 04 	pextrw WORD PTR [rax+0x46],xmm1,0x4
    284c:	66 44 89 50 24       	mov    WORD PTR [rax+0x24],r10w
    2851:	41 ba 00 8e ff ff    	mov    r10d,0xffff8e00
    2857:	66 41 0f 73 d1 20    	psrlq  xmm9,0x20
    285d:	66 0f 3a 15 48 56 05 	pextrw WORD PTR [rax+0x56],xmm1,0x5
    2864:	66 44 89 58 34       	mov    WORD PTR [rax+0x34],r11w
    2869:	41 bb 00 8e ff ff    	mov    r11d,0xffff8e00
    286f:	66 41 0f 73 d0 20    	psrlq  xmm8,0x20
    2875:	66 0f 3a 15 48 66 06 	pextrw WORD PTR [rax+0x66],xmm1,0x6
    287c:	66 44 89 50 44       	mov    WORD PTR [rax+0x44],r10w
    2881:	41 ba 00 8e ff ff    	mov    r10d,0xffff8e00
    2887:	66 0f 73 d7 20       	psrlq  xmm7,0x20
    288c:	66 0f 3a 15 48 76 07 	pextrw WORD PTR [rax+0x76],xmm1,0x7
    2893:	66 44 89 58 54       	mov    WORD PTR [rax+0x54],r11w
    2898:	41 bb 00 8e ff ff    	mov    r11d,0xffff8e00
    289e:	66 0f 73 d6 20       	psrlq  xmm6,0x20
    28a3:	66 0f 3a 15 80 86 00 	pextrw WORD PTR [rax+0x86],xmm0,0x0
    28aa:	00 00 00 
    28ad:	66 44 89 50 64       	mov    WORD PTR [rax+0x64],r10w
    28b2:	41 ba 00 8e ff ff    	mov    r10d,0xffff8e00
    28b8:	48 05 00 01 00 00    	add    rax,0x100
    28be:	66 44 89 98 74 ff ff 	mov    WORD PTR [rax-0x8c],r11w
    28c5:	ff 
    28c6:	41 bb 00 8e ff ff    	mov    r11d,0xffff8e00
    28cc:	66 44 89 50 84       	mov    WORD PTR [rax-0x7c],r10w
    28d1:	41 ba 00 8e ff ff    	mov    r10d,0xffff8e00
    28d7:	66 44 89 58 94       	mov    WORD PTR [rax-0x6c],r11w
    28dc:	41 bb 00 8e ff ff    	mov    r11d,0xffff8e00
    28e2:	66 44 89 50 a4       	mov    WORD PTR [rax-0x5c],r10w
    28e7:	41 ba 00 8e ff ff    	mov    r10d,0xffff8e00
    28ed:	66 44 89 58 b4       	mov    WORD PTR [rax-0x4c],r11w
    28f2:	41 bb 00 8e ff ff    	mov    r11d,0xffff8e00
    28f8:	66 44 89 50 c4       	mov    WORD PTR [rax-0x3c],r10w
    28fd:	41 ba 00 8e ff ff    	mov    r10d,0xffff8e00
    2903:	66 44 89 58 d4       	mov    WORD PTR [rax-0x2c],r11w
    2908:	41 bb 00 8e ff ff    	mov    r11d,0xffff8e00
    290e:	66 44 89 50 e4       	mov    WORD PTR [rax-0x1c],r10w
    2913:	66 44 89 58 f4       	mov    WORD PTR [rax-0xc],r11w
    2918:	66 0f 3a 15 40 96 01 	pextrw WORD PTR [rax-0x6a],xmm0,0x1
    291f:	66 0f 3a 15 40 a6 02 	pextrw WORD PTR [rax-0x5a],xmm0,0x2
    2926:	66 0f 3a 15 40 b6 03 	pextrw WORD PTR [rax-0x4a],xmm0,0x3
    292d:	66 0f 3a 15 40 c6 04 	pextrw WORD PTR [rax-0x3a],xmm0,0x4
    2934:	66 0f 3a 15 40 d6 05 	pextrw WORD PTR [rax-0x2a],xmm0,0x5
    293b:	66 0f 3a 15 40 e6 06 	pextrw WORD PTR [rax-0x1a],xmm0,0x6
    2942:	66 0f 3a 15 40 f6 07 	pextrw WORD PTR [rax-0xa],xmm0,0x7
    2949:	66 44 0f 7e a8 08 ff 	movd   DWORD PTR [rax-0xf8],xmm13
    2950:	ff ff 
    2952:	66 44 0f 3a 16 a8 18 	pextrd DWORD PTR [rax-0xe8],xmm13,0x2
    2959:	ff ff ff 02 
    295d:	66 44 0f 3a 16 a0 38 	pextrd DWORD PTR [rax-0xc8],xmm12,0x2
    2964:	ff ff ff 02 
    2968:	66 44 0f 3a 16 98 58 	pextrd DWORD PTR [rax-0xa8],xmm11,0x2
    296f:	ff ff ff 02 
    2973:	66 44 0f 7e a0 28 ff 	movd   DWORD PTR [rax-0xd8],xmm12
    297a:	ff ff 
    297c:	66 44 0f 3a 16 90 78 	pextrd DWORD PTR [rax-0x88],xmm10,0x2
    2983:	ff ff ff 02 
    2987:	66 44 0f 3a 16 48 98 	pextrd DWORD PTR [rax-0x68],xmm9,0x2
    298e:	02 
    298f:	66 44 0f 3a 16 40 b8 	pextrd DWORD PTR [rax-0x48],xmm8,0x2
    2996:	02 
    2997:	66 44 0f 7e 98 48 ff 	movd   DWORD PTR [rax-0xb8],xmm11
    299e:	ff ff 
    29a0:	66 0f 3a 16 78 d8 02 	pextrd DWORD PTR [rax-0x28],xmm7,0x2
    29a7:	66 0f 3a 16 70 f8 02 	pextrd DWORD PTR [rax-0x8],xmm6,0x2
    29ae:	66 44 0f 7e 90 68 ff 	movd   DWORD PTR [rax-0x98],xmm10
    29b5:	ff ff 
    29b7:	66 44 0f 7e 48 88    	movd   DWORD PTR [rax-0x78],xmm9
    29bd:	66 44 0f 7e 40 a8    	movd   DWORD PTR [rax-0x58],xmm8
    29c3:	66 0f 7e 78 c8       	movd   DWORD PTR [rax-0x38],xmm7
    29c8:	66 0f 7e 70 e8       	movd   DWORD PTR [rax-0x18],xmm6
    29cd:	c7 80 0c ff ff ff 00 	mov    DWORD PTR [rax-0xf4],0x0
    29d4:	00 00 00 
    29d7:	c7 80 1c ff ff ff 00 	mov    DWORD PTR [rax-0xe4],0x0
    29de:	00 00 00 
    29e1:	c7 80 2c ff ff ff 00 	mov    DWORD PTR [rax-0xd4],0x0
    29e8:	00 00 00 
    29eb:	c7 80 3c ff ff ff 00 	mov    DWORD PTR [rax-0xc4],0x0
    29f2:	00 00 00 
    29f5:	c7 80 4c ff ff ff 00 	mov    DWORD PTR [rax-0xb4],0x0
    29fc:	00 00 00 
    29ff:	c7 80 5c ff ff ff 00 	mov    DWORD PTR [rax-0xa4],0x0
    2a06:	00 00 00 
    2a09:	c7 80 6c ff ff ff 00 	mov    DWORD PTR [rax-0x94],0x0
    2a10:	00 00 00 
    2a13:	c7 80 7c ff ff ff 00 	mov    DWORD PTR [rax-0x84],0x0
    2a1a:	00 00 00 
    2a1d:	c7 40 8c 00 00 00 00 	mov    DWORD PTR [rax-0x74],0x0
    2a24:	c7 40 9c 00 00 00 00 	mov    DWORD PTR [rax-0x64],0x0
    2a2b:	c7 40 ac 00 00 00 00 	mov    DWORD PTR [rax-0x54],0x0
    2a32:	c7 40 bc 00 00 00 00 	mov    DWORD PTR [rax-0x44],0x0
    2a39:	c7 40 cc 00 00 00 00 	mov    DWORD PTR [rax-0x34],0x0
    2a40:	c7 40 dc 00 00 00 00 	mov    DWORD PTR [rax-0x24],0x0
    2a47:	c7 40 ec 00 00 00 00 	mov    DWORD PTR [rax-0x14],0x0
    2a4e:	c7 40 fc 00 00 00 00 	mov    DWORD PTR [rax-0x4],0x0
    2a55:	48 39 fa             	cmp    rdx,rdi
    2a58:	0f 85 8c fb ff ff    	jne    25ea <idt_setup+0x8a>
    2a5e:	4b 8b 14 39          	mov    rdx,QWORD PTR [r9+r15*1]
    2a62:	48 b8 74 1a 00 00 00 	movabs rax,0x1a74
    2a69:	00 00 00 
    2a6c:	66 43 0f 6f 24 38    	movdqa xmm4,XMMWORD PTR [r8+r15*1]
    2a72:	48 81 c1 04 10 00 00 	add    rcx,0x1004
    2a79:	4c 01 f8             	add    rax,r15
    2a7c:	48 81 c2 00 01 00 00 	add    rdx,0x100
    2a83:	0f 1f 44 00 00       	nop    DWORD PTR [rax+rax*1+0x0]
    2a88:	f3 44 0f 6f 2a       	movdqu xmm13,XMMWORD PTR [rdx]
    2a8d:	f3 44 0f 6f 5a 20    	movdqu xmm11,XMMWORD PTR [rdx+0x20]
    2a93:	66 0f 6f dc          	movdqa xmm3,xmm4
    2a97:	66 0f 6f c4          	movdqa xmm0,xmm4
    2a9b:	f3 44 0f 6f 62 10    	movdqu xmm12,XMMWORD PTR [rdx+0x10]
    2aa1:	f3 44 0f 6f 52 30    	movdqu xmm10,XMMWORD PTR [rdx+0x30]
    2aa7:	bf 08 00 00 00       	mov    edi,0x8
    2aac:	41 b8 08 00 00 00    	mov    r8d,0x8
    2ab2:	f3 44 0f 6f 4a 40    	movdqu xmm9,XMMWORD PTR [rdx+0x40]
    2ab8:	f3 0f 6f 7a 60       	movdqu xmm7,XMMWORD PTR [rdx+0x60]
    2abd:	66 41 0f 6f cd       	movdqa xmm1,xmm13
    2ac2:	66 45 0f 6f f3       	movdqa xmm14,xmm11
    2ac7:	f3 44 0f 6f 42 50    	movdqu xmm8,XMMWORD PTR [rdx+0x50]
    2acd:	f3 0f 6f 72 70       	movdqu xmm6,XMMWORD PTR [rdx+0x70]
    2ad2:	41 0f c6 cc 88       	shufps xmm1,xmm12,0x88
    2ad7:	45 0f c6 f2 88       	shufps xmm14,xmm10,0x88
    2adc:	66 0f db d9          	pand   xmm3,xmm1
    2ae0:	66 41 0f db c6       	pand   xmm0,xmm14
    2ae5:	66 0f 6f ef          	movdqa xmm5,xmm7
    2ae9:	66 89 78 fe          	mov    WORD PTR [rax-0x2],di
    2aed:	66 0f 38 2b d8       	packusdw xmm3,xmm0
    2af2:	66 0f 6f d4          	movdqa xmm2,xmm4
    2af6:	66 41 0f 6f c1       	movdqa xmm0,xmm9
    2afb:	66 44 89 40 0e       	mov    WORD PTR [rax+0xe],r8w
    2b00:	66 44 0f 6f fc       	movdqa xmm15,xmm4
    2b05:	41 0f c6 c0 88       	shufps xmm0,xmm8,0x88
    2b0a:	0f c6 ee 88          	shufps xmm5,xmm6,0x88
    2b0e:	66 0f db d0          	pand   xmm2,xmm0
    2b12:	66 44 0f db fd       	pand   xmm15,xmm5
    2b17:	41 b9 08 00 00 00    	mov    r9d,0x8
    2b1d:	41 ba 08 00 00 00    	mov    r10d,0x8
    2b23:	41 bb 08 00 00 00    	mov    r11d,0x8
    2b29:	bf 08 00 00 00       	mov    edi,0x8
    2b2e:	41 b8 08 00 00 00    	mov    r8d,0x8
    2b34:	66 41 0f 38 2b d7    	packusdw xmm2,xmm15
    2b3a:	66 44 89 48 1e       	mov    WORD PTR [rax+0x1e],r9w
    2b3f:	66 44 89 50 2e       	mov    WORD PTR [rax+0x2e],r10w
    2b44:	41 b9 08 00 00 00    	mov    r9d,0x8
    2b4a:	41 ba 08 00 00 00    	mov    r10d,0x8
    2b50:	66 0f 3a 15 58 fc 00 	pextrw WORD PTR [rax-0x4],xmm3,0x0
    2b57:	66 44 89 58 3e       	mov    WORD PTR [rax+0x3e],r11w
    2b5c:	41 bb 08 00 00 00    	mov    r11d,0x8
    2b62:	66 0f 3a 15 58 0c 01 	pextrw WORD PTR [rax+0xc],xmm3,0x1
    2b69:	66 0f 3a 15 58 1c 02 	pextrw WORD PTR [rax+0x1c],xmm3,0x2
    2b70:	66 89 78 4e          	mov    WORD PTR [rax+0x4e],di
    2b74:	bf 08 00 00 00       	mov    edi,0x8
    2b79:	66 0f 3a 15 58 2c 03 	pextrw WORD PTR [rax+0x2c],xmm3,0x3
    2b80:	66 0f 3a 15 58 3c 04 	pextrw WORD PTR [rax+0x3c],xmm3,0x4
    2b87:	66 44 89 40 5e       	mov    WORD PTR [rax+0x5e],r8w
    2b8c:	41 b8 08 00 00 00    	mov    r8d,0x8
    2b92:	66 0f 3a 15 58 4c 05 	pextrw WORD PTR [rax+0x4c],xmm3,0x5
    2b99:	66 0f 3a 15 58 5c 06 	pextrw WORD PTR [rax+0x5c],xmm3,0x6
    2ba0:	66 44 89 48 6e       	mov    WORD PTR [rax+0x6e],r9w
    2ba5:	66 0f 3a 15 58 6c 07 	pextrw WORD PTR [rax+0x6c],xmm3,0x7
    2bac:	41 b9 08 00 00 00    	mov    r9d,0x8
    2bb2:	66 0f 3a 15 50 7c 00 	pextrw WORD PTR [rax+0x7c],xmm2,0x0
    2bb9:	66 0f 3a 15 90 8c 00 	pextrw WORD PTR [rax+0x8c],xmm2,0x1
    2bc0:	00 00 01 
    2bc3:	66 0f 3a 15 90 9c 00 	pextrw WORD PTR [rax+0x9c],xmm2,0x2
    2bca:	00 00 02 
    2bcd:	66 0f 3a 15 90 ac 00 	pextrw WORD PTR [rax+0xac],xmm2,0x3
    2bd4:	00 00 03 
    2bd7:	66 0f 3a 15 90 bc 00 	pextrw WORD PTR [rax+0xbc],xmm2,0x4
    2bde:	00 00 04 
    2be1:	66 0f 3a 15 90 cc 00 	pextrw WORD PTR [rax+0xcc],xmm2,0x5
    2be8:	00 00 05 
    2beb:	66 0f 3a 15 90 dc 00 	pextrw WORD PTR [rax+0xdc],xmm2,0x6
    2bf2:	00 00 06 
    2bf5:	66 0f 3a 15 90 ec 00 	pextrw WORD PTR [rax+0xec],xmm2,0x7
    2bfc:	00 00 07 
    2bff:	66 44 89 50 7e       	mov    WORD PTR [rax+0x7e],r10w
    2c04:	66 44 89 98 8e 00 00 	mov    WORD PTR [rax+0x8e],r11w
    2c0b:	00 
    2c0c:	41 ba 08 00 00 00    	mov    r10d,0x8
    2c12:	41 bb 08 00 00 00    	mov    r11d,0x8
    2c18:	48 05 00 01 00 00    	add    rax,0x100
    2c1e:	66 89 78 9e          	mov    WORD PTR [rax-0x62],di
    2c22:	bf 08 00 00 00       	mov    edi,0x8
    2c27:	66 0f 72 d1 10       	psrld  xmm1,0x10
    2c2c:	48 83 ea 80          	sub    rdx,0xffffffffffffff80
    2c30:	66 44 89 40 ae       	mov    WORD PTR [rax-0x52],r8w
    2c35:	41 b8 00 8e ff ff    	mov    r8d,0xffff8e00
    2c3b:	66 41 0f 72 d6 10    	psrld  xmm14,0x10
    2c41:	66 0f db cc          	pand   xmm1,xmm4
    2c45:	66 44 89 48 be       	mov    WORD PTR [rax-0x42],r9w
    2c4a:	66 0f 72 d0 10       	psrld  xmm0,0x10
    2c4f:	41 b9 00 8e ff ff    	mov    r9d,0xffff8e00
    2c55:	66 44 0f db f4       	pand   xmm14,xmm4
    2c5a:	66 44 89 50 ce       	mov    WORD PTR [rax-0x32],r10w
    2c5f:	66 0f 72 d5 10       	psrld  xmm5,0x10
    2c64:	41 ba 00 8e ff ff    	mov    r10d,0xffff8e00
    2c6a:	66 0f db c4          	pand   xmm0,xmm4
    2c6e:	66 44 89 58 de       	mov    WORD PTR [rax-0x22],r11w
    2c73:	41 bb 00 8e ff ff    	mov    r11d,0xffff8e00
    2c79:	66 0f db ec          	pand   xmm5,xmm4
    2c7d:	66 41 0f 38 2b ce    	packusdw xmm1,xmm14
    2c83:	66 89 78 ee          	mov    WORD PTR [rax-0x12],di
    2c87:	bf 00 8e ff ff       	mov    edi,0xffff8e00
    2c8c:	66 0f 38 2b c5       	packusdw xmm0,xmm5
    2c91:	66 0f 3a 15 88 02 ff 	pextrw WORD PTR [rax-0xfe],xmm1,0x0
    2c98:	ff ff 00 
    2c9b:	66 44 89 80 00 ff ff 	mov    WORD PTR [rax-0x100],r8w
    2ca2:	ff 
    2ca3:	41 b8 00 8e ff ff    	mov    r8d,0xffff8e00
    2ca9:	66 41 0f 73 d5 20    	psrlq  xmm13,0x20
    2caf:	66 0f 3a 15 88 12 ff 	pextrw WORD PTR [rax-0xee],xmm1,0x1
    2cb6:	ff ff 01 
    2cb9:	66 44 89 88 10 ff ff 	mov    WORD PTR [rax-0xf0],r9w
    2cc0:	ff 
    2cc1:	41 b9 00 8e ff ff    	mov    r9d,0xffff8e00
    2cc7:	66 41 0f 73 d4 20    	psrlq  xmm12,0x20
    2ccd:	66 0f 3a 15 88 22 ff 	pextrw WORD PTR [rax-0xde],xmm1,0x2
    2cd4:	ff ff 02 
    2cd7:	66 44 89 90 20 ff ff 	mov    WORD PTR [rax-0xe0],r10w
    2cde:	ff 
    2cdf:	41 ba 00 8e ff ff    	mov    r10d,0xffff8e00
    2ce5:	66 41 0f 73 d3 20    	psrlq  xmm11,0x20
    2ceb:	66 0f 3a 15 88 32 ff 	pextrw WORD PTR [rax-0xce],xmm1,0x3
    2cf2:	ff ff 03 
    2cf5:	66 44 89 98 30 ff ff 	mov    WORD PTR [rax-0xd0],r11w
    2cfc:	ff 
    2cfd:	66 41 0f 73 d2 20    	psrlq  xmm10,0x20
    2d03:	66 41 0f 73 d1 20    	psrlq  xmm9,0x20
    2d09:	41 bb 00 8e ff ff    	mov    r11d,0xffff8e00
    2d0f:	66 89 b8 40 ff ff ff 	mov    WORD PTR [rax-0xc0],di
    2d16:	66 41 0f 73 d0 20    	psrlq  xmm8,0x20
    2d1c:	66 0f 73 d7 20       	psrlq  xmm7,0x20
    2d21:	bf 00 8e ff ff       	mov    edi,0xffff8e00
    2d26:	66 44 89 80 50 ff ff 	mov    WORD PTR [rax-0xb0],r8w
    2d2d:	ff 
    2d2e:	41 b8 00 8e ff ff    	mov    r8d,0xffff8e00
    2d34:	66 0f 73 d6 20       	psrlq  xmm6,0x20
    2d39:	66 0f 3a 15 88 42 ff 	pextrw WORD PTR [rax-0xbe],xmm1,0x4
    2d40:	ff ff 04 
    2d43:	66 44 89 88 60 ff ff 	mov    WORD PTR [rax-0xa0],r9w
    2d4a:	ff 
    2d4b:	41 b9 00 8e ff ff    	mov    r9d,0xffff8e00
    2d51:	66 0f 3a 15 88 52 ff 	pextrw WORD PTR [rax-0xae],xmm1,0x5
    2d58:	ff ff 05 
    2d5b:	66 0f 3a 15 88 62 ff 	pextrw WORD PTR [rax-0x9e],xmm1,0x6
    2d62:	ff ff 06 
    2d65:	66 44 89 90 70 ff ff 	mov    WORD PTR [rax-0x90],r10w
    2d6c:	ff 
    2d6d:	41 ba 00 8e ff ff    	mov    r10d,0xffff8e00
    2d73:	66 0f 3a 15 88 72 ff 	pextrw WORD PTR [rax-0x8e],xmm1,0x7
    2d7a:	ff ff 07 
    2d7d:	66 0f 3a 15 40 82 00 	pextrw WORD PTR [rax-0x7e],xmm0,0x0
    2d84:	66 44 89 58 80       	mov    WORD PTR [rax-0x80],r11w
    2d89:	41 bb 00 8e ff ff    	mov    r11d,0xffff8e00
    2d8f:	66 89 78 90          	mov    WORD PTR [rax-0x70],di
    2d93:	bf 00 8e ff ff       	mov    edi,0xffff8e00
    2d98:	66 44 89 40 a0       	mov    WORD PTR [rax-0x60],r8w
    2d9d:	41 b8 00 8e ff ff    	mov    r8d,0xffff8e00
    2da3:	66 44 89 48 b0       	mov    WORD PTR [rax-0x50],r9w
    2da8:	66 44 89 50 c0       	mov    WORD PTR [rax-0x40],r10w
    2dad:	66 44 89 58 d0       	mov    WORD PTR [rax-0x30],r11w
    2db2:	66 89 78 e0          	mov    WORD PTR [rax-0x20],di
    2db6:	66 44 89 40 f0       	mov    WORD PTR [rax-0x10],r8w
    2dbb:	66 0f 3a 15 40 92 01 	pextrw WORD PTR [rax-0x6e],xmm0,0x1
    2dc2:	66 0f 3a 15 40 a2 02 	pextrw WORD PTR [rax-0x5e],xmm0,0x2
    2dc9:	66 0f 3a 15 40 b2 03 	pextrw WORD PTR [rax-0x4e],xmm0,0x3
    2dd0:	66 0f 3a 15 40 c2 04 	pextrw WORD PTR [rax-0x3e],xmm0,0x4
    2dd7:	66 0f 3a 15 40 d2 05 	pextrw WORD PTR [rax-0x2e],xmm0,0x5
    2dde:	66 0f 3a 15 40 e2 06 	pextrw WORD PTR [rax-0x1e],xmm0,0x6
    2de5:	66 0f 3a 15 40 f2 07 	pextrw WORD PTR [rax-0xe],xmm0,0x7
    2dec:	66 44 0f 7e a8 04 ff 	movd   DWORD PTR [rax-0xfc],xmm13
    2df3:	ff ff 
    2df5:	66 44 0f 3a 16 a8 14 	pextrd DWORD PTR [rax-0xec],xmm13,0x2
    2dfc:	ff ff ff 02 
    2e00:	66 44 0f 3a 16 a0 34 	pextrd DWORD PTR [rax-0xcc],xmm12,0x2
    2e07:	ff ff ff 02 
    2e0b:	66 44 0f 3a 16 98 54 	pextrd DWORD PTR [rax-0xac],xmm11,0x2
    2e12:	ff ff ff 02 
    2e16:	66 44 0f 7e a0 24 ff 	movd   DWORD PTR [rax-0xdc],xmm12
    2e1d:	ff ff 
    2e1f:	66 44 0f 3a 16 90 74 	pextrd DWORD PTR [rax-0x8c],xmm10,0x2
    2e26:	ff ff ff 02 
    2e2a:	66 44 0f 3a 16 48 94 	pextrd DWORD PTR [rax-0x6c],xmm9,0x2
    2e31:	02 
    2e32:	66 44 0f 3a 16 40 b4 	pextrd DWORD PTR [rax-0x4c],xmm8,0x2
    2e39:	02 
    2e3a:	66 44 0f 7e 98 44 ff 	movd   DWORD PTR [rax-0xbc],xmm11
    2e41:	ff ff 
    2e43:	66 0f 3a 16 78 d4 02 	pextrd DWORD PTR [rax-0x2c],xmm7,0x2
    2e4a:	66 0f 3a 16 70 f4 02 	pextrd DWORD PTR [rax-0xc],xmm6,0x2
    2e51:	66 44 0f 7e 90 64 ff 	movd   DWORD PTR [rax-0x9c],xmm10
    2e58:	ff ff 
    2e5a:	66 44 0f 7e 48 84    	movd   DWORD PTR [rax-0x7c],xmm9
    2e60:	66 44 0f 7e 40 a4    	movd   DWORD PTR [rax-0x5c],xmm8
    2e66:	66 0f 7e 78 c4       	movd   DWORD PTR [rax-0x3c],xmm7
    2e6b:	66 0f 7e 70 e4       	movd   DWORD PTR [rax-0x1c],xmm6
    2e70:	c7 80 08 ff ff ff 00 	mov    DWORD PTR [rax-0xf8],0x0
    2e77:	00 00 00 
    2e7a:	c7 80 18 ff ff ff 00 	mov    DWORD PTR [rax-0xe8],0x0
    2e81:	00 00 00 
    2e84:	c7 80 28 ff ff ff 00 	mov    DWORD PTR [rax-0xd8],0x0
    2e8b:	00 00 00 
    2e8e:	c7 80 38 ff ff ff 00 	mov    DWORD PTR [rax-0xc8],0x0
    2e95:	00 00 00 
    2e98:	c7 80 48 ff ff ff 00 	mov    DWORD PTR [rax-0xb8],0x0
    2e9f:	00 00 00 
    2ea2:	c7 80 58 ff ff ff 00 	mov    DWORD PTR [rax-0xa8],0x0
    2ea9:	00 00 00 
    2eac:	c7 80 68 ff ff ff 00 	mov    DWORD PTR [rax-0x98],0x0
    2eb3:	00 00 00 
    2eb6:	c7 80 78 ff ff ff 00 	mov    DWORD PTR [rax-0x88],0x0
    2ebd:	00 00 00 
    2ec0:	c7 40 88 00 00 00 00 	mov    DWORD PTR [rax-0x78],0x0
    2ec7:	c7 40 98 00 00 00 00 	mov    DWORD PTR [rax-0x68],0x0
    2ece:	c7 40 a8 00 00 00 00 	mov    DWORD PTR [rax-0x58],0x0
    2ed5:	c7 40 b8 00 00 00 00 	mov    DWORD PTR [rax-0x48],0x0
    2edc:	c7 40 c8 00 00 00 00 	mov    DWORD PTR [rax-0x38],0x0
    2ee3:	c7 40 d8 00 00 00 00 	mov    DWORD PTR [rax-0x28],0x0
    2eea:	c7 40 e8 00 00 00 00 	mov    DWORD PTR [rax-0x18],0x0
    2ef1:	c7 40 f8 00 00 00 00 	mov    DWORD PTR [rax-0x8],0x0
    2ef8:	48 39 c8             	cmp    rax,rcx
    2efb:	0f 85 87 fb ff ff    	jne    2a88 <idt_setup+0x528>
    2f01:	fa                   	cli
    2f02:	48 b8 9b 7e ff ff ff 	movabs rax,0xffffffffffff7e9b
    2f09:	ff ff ff 
    2f0c:	4a 8d 3c 3e          	lea    rdi,[rsi+r15*1]
    2f10:	4c 01 f8             	add    rax,r15
    2f13:	ff d0                	call   rax
    2f15:	fb                   	sti
    2f16:	48 b8 84 e3 ff ff ff 	movabs rax,0xffffffffffffe384
    2f1d:	ff ff ff 
    2f20:	4c 01 fb             	add    rbx,r15
    2f23:	49 8d 3c 07          	lea    rdi,[r15+rax*1]
    2f27:	31 c0                	xor    eax,eax
    2f29:	ff d3                	call   rbx
    2f2b:	48 83 c4 08          	add    rsp,0x8
    2f2f:	31 c0                	xor    eax,eax
    2f31:	5b                   	pop    rbx
    2f32:	41 5f                	pop    r15
    2f34:	c3                   	ret
    2f35:	66 2e 0f 1f 84 00 00 	cs nop WORD PTR [rax+rax*1+0x0]
    2f3c:	00 00 00 
    2f3f:	90                   	nop

0000000000002f40 <int_unhandled>:
    2f40:	41 57                	push   r15
    2f42:	4c 8d 3d f7 ff ff ff 	lea    r15,[rip+0xfffffffffffffff7]        # 2f40 <int_unhandled>
    2f49:	41 53                	push   r11
    2f4b:	49 bb 50 68 00 00 00 	movabs r11,0x6850
    2f52:	00 00 00 
    2f55:	4d 01 df             	add    r15,r11
    2f58:	41 52                	push   r10
    2f5a:	41 51                	push   r9
    2f5c:	41 50                	push   r8
    2f5e:	57                   	push   rdi
    2f5f:	56                   	push   rsi
    2f60:	53                   	push   rbx
    2f61:	48 bb c1 c1 ff ff ff 	movabs rbx,0xffffffffffffc1c1
    2f68:	ff ff ff 
    2f6b:	4c 01 fb             	add    rbx,r15
    2f6e:	51                   	push   rcx
    2f6f:	52                   	push   rdx
    2f70:	50                   	push   rax
    2f71:	48 b8 b0 e5 ff ff ff 	movabs rax,0xffffffffffffe5b0
    2f78:	ff ff ff 
    2f7b:	49 8d 3c 07          	lea    rdi,[r15+rax*1]
    2f7f:	31 c0                	xor    eax,eax
    2f81:	48 8b 74 24 58       	mov    rsi,QWORD PTR [rsp+0x58]
    2f86:	fc                   	cld
    2f87:	ff d3                	call   rbx
    2f89:	58                   	pop    rax
    2f8a:	5a                   	pop    rdx
    2f8b:	59                   	pop    rcx
    2f8c:	5b                   	pop    rbx
    2f8d:	5e                   	pop    rsi
    2f8e:	5f                   	pop    rdi
    2f8f:	41 58                	pop    r8
    2f91:	41 59                	pop    r9
    2f93:	41 5a                	pop    r10
    2f95:	41 5b                	pop    r11
    2f97:	41 5f                	pop    r15
    2f99:	48 cf                	iretq
    2f9b:	0f 1f 44 00 00       	nop    DWORD PTR [rax+rax*1+0x0]

0000000000002fa0 <int_regdump>:
    2fa0:	41 57                	push   r15
    2fa2:	4c 8d 3d f7 ff ff ff 	lea    r15,[rip+0xfffffffffffffff7]        # 2fa0 <int_regdump>
    2fa9:	41 53                	push   r11
    2fab:	49 bb f0 67 00 00 00 	movabs r11,0x67f0
    2fb2:	00 00 00 
    2fb5:	4d 01 df             	add    r15,r11
    2fb8:	41 52                	push   r10
    2fba:	41 51                	push   r9
    2fbc:	41 50                	push   r8
    2fbe:	57                   	push   rdi
    2fbf:	56                   	push   rsi
    2fc0:	53                   	push   rbx
    2fc1:	48 bb c1 c1 ff ff ff 	movabs rbx,0xffffffffffffc1c1
    2fc8:	ff ff ff 
    2fcb:	4c 01 fb             	add    rbx,r15
    2fce:	51                   	push   rcx
    2fcf:	52                   	push   rdx
    2fd0:	50                   	push   rax
    2fd1:	48 b8 c9 e5 ff ff ff 	movabs rax,0xffffffffffffe5c9
    2fd8:	ff ff ff 
    2fdb:	49 8d 3c 07          	lea    rdi,[r15+rax*1]
    2fdf:	31 c0                	xor    eax,eax
    2fe1:	fc                   	cld
    2fe2:	ff d3                	call   rbx
    2fe4:	58                   	pop    rax
    2fe5:	5a                   	pop    rdx
    2fe6:	59                   	pop    rcx
    2fe7:	5b                   	pop    rbx
    2fe8:	5e                   	pop    rsi
    2fe9:	5f                   	pop    rdi
    2fea:	41 58                	pop    r8
    2fec:	41 59                	pop    r9
    2fee:	41 5a                	pop    r10
    2ff0:	41 5b                	pop    r11
    2ff2:	41 5f                	pop    r15
    2ff4:	48 cf                	iretq
    2ff6:	66 2e 0f 1f 84 00 00 	cs nop WORD PTR [rax+rax*1+0x0]
    2ffd:	00 00 00 

0000000000003000 <exc_division_error>:
    3000:	41 57                	push   r15
    3002:	4c 8d 3d f7 ff ff ff 	lea    r15,[rip+0xfffffffffffffff7]        # 3000 <exc_division_error>
    3009:	41 53                	push   r11
    300b:	49 bb 90 67 00 00 00 	movabs r11,0x6790
    3012:	00 00 00 
    3015:	4d 01 df             	add    r15,r11
    3018:	41 52                	push   r10
    301a:	41 51                	push   r9
    301c:	41 50                	push   r8
    301e:	57                   	push   rdi
    301f:	56                   	push   rsi
    3020:	53                   	push   rbx
    3021:	48 bb c1 c1 ff ff ff 	movabs rbx,0xffffffffffffc1c1
    3028:	ff ff ff 
    302b:	4c 01 fb             	add    rbx,r15
    302e:	51                   	push   rcx
    302f:	52                   	push   rdx
    3030:	50                   	push   rax
    3031:	48 b8 78 e6 ff ff ff 	movabs rax,0xffffffffffffe678
    3038:	ff ff ff 
    303b:	49 8d 3c 07          	lea    rdi,[r15+rax*1]
    303f:	31 c0                	xor    eax,eax
    3041:	48 8b 74 24 58       	mov    rsi,QWORD PTR [rsp+0x58]
    3046:	fc                   	cld
    3047:	ff d3                	call   rbx
    3049:	58                   	pop    rax
    304a:	5a                   	pop    rdx
    304b:	59                   	pop    rcx
    304c:	5b                   	pop    rbx
    304d:	5e                   	pop    rsi
    304e:	5f                   	pop    rdi
    304f:	41 58                	pop    r8
    3051:	41 59                	pop    r9
    3053:	41 5a                	pop    r10
    3055:	41 5b                	pop    r11
    3057:	41 5f                	pop    r15
    3059:	48 cf                	iretq
    305b:	0f 1f 44 00 00       	nop    DWORD PTR [rax+rax*1+0x0]

0000000000003060 <exc_debug>:
    3060:	41 57                	push   r15
    3062:	4c 8d 3d f7 ff ff ff 	lea    r15,[rip+0xfffffffffffffff7]        # 3060 <exc_debug>
    3069:	41 53                	push   r11
    306b:	49 bb 30 67 00 00 00 	movabs r11,0x6730
    3072:	00 00 00 
    3075:	4d 01 df             	add    r15,r11
    3078:	41 52                	push   r10
    307a:	41 51                	push   r9
    307c:	41 50                	push   r8
    307e:	57                   	push   rdi
    307f:	56                   	push   rsi
    3080:	53                   	push   rbx
    3081:	48 bb c1 c1 ff ff ff 	movabs rbx,0xffffffffffffc1c1
    3088:	ff ff ff 
    308b:	4c 01 fb             	add    rbx,r15
    308e:	51                   	push   rcx
    308f:	52                   	push   rdx
    3090:	50                   	push   rax
    3091:	48 b8 e0 e5 ff ff ff 	movabs rax,0xffffffffffffe5e0
    3098:	ff ff ff 
    309b:	49 8d 3c 07          	lea    rdi,[r15+rax*1]
    309f:	31 c0                	xor    eax,eax
    30a1:	48 8b 74 24 58       	mov    rsi,QWORD PTR [rsp+0x58]
    30a6:	fc                   	cld
    30a7:	ff d3                	call   rbx
    30a9:	58                   	pop    rax
    30aa:	5a                   	pop    rdx
    30ab:	59                   	pop    rcx
    30ac:	5b                   	pop    rbx
    30ad:	5e                   	pop    rsi
    30ae:	5f                   	pop    rdi
    30af:	41 58                	pop    r8
    30b1:	41 59                	pop    r9
    30b3:	41 5a                	pop    r10
    30b5:	41 5b                	pop    r11
    30b7:	41 5f                	pop    r15
    30b9:	48 cf                	iretq
    30bb:	0f 1f 44 00 00       	nop    DWORD PTR [rax+rax*1+0x0]

00000000000030c0 <exc_non_maskable>:
    30c0:	41 57                	push   r15
    30c2:	4c 8d 3d f7 ff ff ff 	lea    r15,[rip+0xfffffffffffffff7]        # 30c0 <exc_non_maskable>
    30c9:	41 53                	push   r11
    30cb:	49 bb d0 66 00 00 00 	movabs r11,0x66d0
    30d2:	00 00 00 
    30d5:	4d 01 df             	add    r15,r11
    30d8:	41 52                	push   r10
    30da:	41 51                	push   r9
    30dc:	41 50                	push   r8
    30de:	57                   	push   rdi
    30df:	56                   	push   rsi
    30e0:	53                   	push   rbx
    30e1:	48 bb c1 c1 ff ff ff 	movabs rbx,0xffffffffffffc1c1
    30e8:	ff ff ff 
    30eb:	4c 01 fb             	add    rbx,r15
    30ee:	51                   	push   rcx
    30ef:	52                   	push   rdx
    30f0:	50                   	push   rax
    30f1:	48 b8 a0 e6 ff ff ff 	movabs rax,0xffffffffffffe6a0
    30f8:	ff ff ff 
    30fb:	49 8d 3c 07          	lea    rdi,[r15+rax*1]
    30ff:	31 c0                	xor    eax,eax
    3101:	48 8b 74 24 58       	mov    rsi,QWORD PTR [rsp+0x58]
    3106:	fc                   	cld
    3107:	ff d3                	call   rbx
    3109:	58                   	pop    rax
    310a:	5a                   	pop    rdx
    310b:	59                   	pop    rcx
    310c:	5b                   	pop    rbx
    310d:	5e                   	pop    rsi
    310e:	5f                   	pop    rdi
    310f:	41 58                	pop    r8
    3111:	41 59                	pop    r9
    3113:	41 5a                	pop    r10
    3115:	41 5b                	pop    r11
    3117:	41 5f                	pop    r15
    3119:	48 cf                	iretq
    311b:	0f 1f 44 00 00       	nop    DWORD PTR [rax+rax*1+0x0]

0000000000003120 <exc_breakpoint>:
    3120:	41 57                	push   r15
    3122:	4c 8d 3d f7 ff ff ff 	lea    r15,[rip+0xfffffffffffffff7]        # 3120 <exc_breakpoint>
    3129:	41 53                	push   r11
    312b:	49 bb 70 66 00 00 00 	movabs r11,0x6670
    3132:	00 00 00 
    3135:	4d 01 df             	add    r15,r11
    3138:	41 52                	push   r10
    313a:	41 51                	push   r9
    313c:	41 50                	push   r8
    313e:	57                   	push   rdi
    313f:	56                   	push   rsi
    3140:	53                   	push   rbx
    3141:	48 bb c1 c1 ff ff ff 	movabs rbx,0xffffffffffffc1c1
    3148:	ff ff ff 
    314b:	4c 01 fb             	add    rbx,r15
    314e:	51                   	push   rcx
    314f:	52                   	push   rdx
    3150:	50                   	push   rax
    3151:	48 b8 f9 e5 ff ff ff 	movabs rax,0xffffffffffffe5f9
    3158:	ff ff ff 
    315b:	49 8d 3c 07          	lea    rdi,[r15+rax*1]
    315f:	31 c0                	xor    eax,eax
    3161:	48 8b 74 24 58       	mov    rsi,QWORD PTR [rsp+0x58]
    3166:	fc                   	cld
    3167:	ff d3                	call   rbx
    3169:	48 b8 17 e6 ff ff ff 	movabs rax,0xffffffffffffe617
    3170:	ff ff ff 
    3173:	49 8d 3c 07          	lea    rdi,[r15+rax*1]
    3177:	31 c0                	xor    eax,eax
    3179:	ff d3                	call   rbx
    317b:	58                   	pop    rax
    317c:	5a                   	pop    rdx
    317d:	59                   	pop    rcx
    317e:	5b                   	pop    rbx
    317f:	5e                   	pop    rsi
    3180:	5f                   	pop    rdi
    3181:	41 58                	pop    r8
    3183:	41 59                	pop    r9
    3185:	41 5a                	pop    r10
    3187:	41 5b                	pop    r11
    3189:	41 5f                	pop    r15
    318b:	48 cf                	iretq
    318d:	0f 1f 00             	nop    DWORD PTR [rax]

0000000000003190 <exc_overflow>:
    3190:	41 57                	push   r15
    3192:	4c 8d 3d f7 ff ff ff 	lea    r15,[rip+0xfffffffffffffff7]        # 3190 <exc_overflow>
    3199:	41 53                	push   r11
    319b:	49 bb 00 66 00 00 00 	movabs r11,0x6600
    31a2:	00 00 00 
    31a5:	4d 01 df             	add    r15,r11
    31a8:	41 52                	push   r10
    31aa:	41 51                	push   r9
    31ac:	41 50                	push   r8
    31ae:	57                   	push   rdi
    31af:	56                   	push   rsi
    31b0:	53                   	push   rbx
    31b1:	48 bb c1 c1 ff ff ff 	movabs rbx,0xffffffffffffc1c1
    31b8:	ff ff ff 
    31bb:	4c 01 fb             	add    rbx,r15
    31be:	51                   	push   rcx
    31bf:	52                   	push   rdx
    31c0:	50                   	push   rax
    31c1:	48 b8 25 e6 ff ff ff 	movabs rax,0xffffffffffffe625
    31c8:	ff ff ff 
    31cb:	49 8d 3c 07          	lea    rdi,[r15+rax*1]
    31cf:	31 c0                	xor    eax,eax
    31d1:	48 8b 74 24 58       	mov    rsi,QWORD PTR [rsp+0x58]
    31d6:	fc                   	cld
    31d7:	ff d3                	call   rbx
    31d9:	58                   	pop    rax
    31da:	5a                   	pop    rdx
    31db:	59                   	pop    rcx
    31dc:	5b                   	pop    rbx
    31dd:	5e                   	pop    rsi
    31de:	5f                   	pop    rdi
    31df:	41 58                	pop    r8
    31e1:	41 59                	pop    r9
    31e3:	41 5a                	pop    r10
    31e5:	41 5b                	pop    r11
    31e7:	41 5f                	pop    r15
    31e9:	48 cf                	iretq
    31eb:	0f 1f 44 00 00       	nop    DWORD PTR [rax+rax*1+0x0]

00000000000031f0 <exc_bound_range_exceeded>:
    31f0:	41 57                	push   r15
    31f2:	4c 8d 3d f7 ff ff ff 	lea    r15,[rip+0xfffffffffffffff7]        # 31f0 <exc_bound_range_exceeded>
    31f9:	41 53                	push   r11
    31fb:	49 bb a0 65 00 00 00 	movabs r11,0x65a0
    3202:	00 00 00 
    3205:	4d 01 df             	add    r15,r11
    3208:	41 52                	push   r10
    320a:	41 51                	push   r9
    320c:	41 50                	push   r8
    320e:	57                   	push   rdi
    320f:	56                   	push   rsi
    3210:	53                   	push   rbx
    3211:	48 bb c1 c1 ff ff ff 	movabs rbx,0xffffffffffffc1c1
    3218:	ff ff ff 
    321b:	4c 01 fb             	add    rbx,r15
    321e:	51                   	push   rcx
    321f:	52                   	push   rdx
    3220:	50                   	push   rax
    3221:	48 b8 c8 e6 ff ff ff 	movabs rax,0xffffffffffffe6c8
    3228:	ff ff ff 
    322b:	49 8d 3c 07          	lea    rdi,[r15+rax*1]
    322f:	31 c0                	xor    eax,eax
    3231:	48 8b 74 24 58       	mov    rsi,QWORD PTR [rsp+0x58]
    3236:	fc                   	cld
    3237:	ff d3                	call   rbx
    3239:	58                   	pop    rax
    323a:	5a                   	pop    rdx
    323b:	59                   	pop    rcx
    323c:	5b                   	pop    rbx
    323d:	5e                   	pop    rsi
    323e:	5f                   	pop    rdi
    323f:	41 58                	pop    r8
    3241:	41 59                	pop    r9
    3243:	41 5a                	pop    r10
    3245:	41 5b                	pop    r11
    3247:	41 5f                	pop    r15
    3249:	48 cf                	iretq
    324b:	0f 1f 44 00 00       	nop    DWORD PTR [rax+rax*1+0x0]

0000000000003250 <exc_invalid_opcode>:
    3250:	41 57                	push   r15
    3252:	4c 8d 3d f7 ff ff ff 	lea    r15,[rip+0xfffffffffffffff7]        # 3250 <exc_invalid_opcode>
    3259:	41 53                	push   r11
    325b:	49 bb 40 65 00 00 00 	movabs r11,0x6540
    3262:	00 00 00 
    3265:	4d 01 df             	add    r15,r11
    3268:	41 52                	push   r10
    326a:	41 51                	push   r9
    326c:	41 50                	push   r8
    326e:	57                   	push   rdi
    326f:	56                   	push   rsi
    3270:	53                   	push   rbx
    3271:	48 bb c1 c1 ff ff ff 	movabs rbx,0xffffffffffffc1c1
    3278:	ff ff ff 
    327b:	4c 01 fb             	add    rbx,r15
    327e:	51                   	push   rcx
    327f:	52                   	push   rdx
    3280:	50                   	push   rax
    3281:	48 b8 f0 e6 ff ff ff 	movabs rax,0xffffffffffffe6f0
    3288:	ff ff ff 
    328b:	49 8d 3c 07          	lea    rdi,[r15+rax*1]
    328f:	31 c0                	xor    eax,eax
    3291:	48 8b 74 24 58       	mov    rsi,QWORD PTR [rsp+0x58]
    3296:	fc                   	cld
    3297:	ff d3                	call   rbx
    3299:	58                   	pop    rax
    329a:	5a                   	pop    rdx
    329b:	59                   	pop    rcx
    329c:	5b                   	pop    rbx
    329d:	5e                   	pop    rsi
    329e:	5f                   	pop    rdi
    329f:	41 58                	pop    r8
    32a1:	41 59                	pop    r9
    32a3:	41 5a                	pop    r10
    32a5:	41 5b                	pop    r11
    32a7:	41 5f                	pop    r15
    32a9:	48 cf                	iretq
    32ab:	0f 1f 44 00 00       	nop    DWORD PTR [rax+rax*1+0x0]

00000000000032b0 <exc_device_not_available>:
    32b0:	41 57                	push   r15
    32b2:	4c 8d 3d f7 ff ff ff 	lea    r15,[rip+0xfffffffffffffff7]        # 32b0 <exc_device_not_available>
    32b9:	41 53                	push   r11
    32bb:	49 bb e0 64 00 00 00 	movabs r11,0x64e0
    32c2:	00 00 00 
    32c5:	4d 01 df             	add    r15,r11
    32c8:	41 52                	push   r10
    32ca:	41 51                	push   r9
    32cc:	41 50                	push   r8
    32ce:	57                   	push   rdi
    32cf:	56                   	push   rsi
    32d0:	53                   	push   rbx
    32d1:	48 bb c1 c1 ff ff ff 	movabs rbx,0xffffffffffffc1c1
    32d8:	ff ff ff 
    32db:	4c 01 fb             	add    rbx,r15
    32de:	51                   	push   rcx
    32df:	52                   	push   rdx
    32e0:	50                   	push   rax
    32e1:	48 b8 18 e7 ff ff ff 	movabs rax,0xffffffffffffe718
    32e8:	ff ff ff 
    32eb:	49 8d 3c 07          	lea    rdi,[r15+rax*1]
    32ef:	31 c0                	xor    eax,eax
    32f1:	48 8b 74 24 58       	mov    rsi,QWORD PTR [rsp+0x58]
    32f6:	fc                   	cld
    32f7:	ff d3                	call   rbx
    32f9:	58                   	pop    rax
    32fa:	5a                   	pop    rdx
    32fb:	59                   	pop    rcx
    32fc:	5b                   	pop    rbx
    32fd:	5e                   	pop    rsi
    32fe:	5f                   	pop    rdi
    32ff:	41 58                	pop    r8
    3301:	41 59                	pop    r9
    3303:	41 5a                	pop    r10
    3305:	41 5b                	pop    r11
    3307:	41 5f                	pop    r15
    3309:	48 cf                	iretq
    330b:	0f 1f 44 00 00       	nop    DWORD PTR [rax+rax*1+0x0]

0000000000003310 <exc_double_fault>:
    3310:	41 57                	push   r15
    3312:	4c 8d 3d f7 ff ff ff 	lea    r15,[rip+0xfffffffffffffff7]        # 3310 <exc_double_fault>
    3319:	41 53                	push   r11
    331b:	49 bb 80 64 00 00 00 	movabs r11,0x6480
    3322:	00 00 00 
    3325:	4d 01 df             	add    r15,r11
    3328:	41 52                	push   r10
    332a:	41 51                	push   r9
    332c:	41 50                	push   r8
    332e:	57                   	push   rdi
    332f:	56                   	push   rsi
    3330:	53                   	push   rbx
    3331:	48 bb c1 c1 ff ff ff 	movabs rbx,0xffffffffffffc1c1
    3338:	ff ff ff 
    333b:	4c 01 fb             	add    rbx,r15
    333e:	51                   	push   rcx
    333f:	52                   	push   rdx
    3340:	50                   	push   rax
    3341:	48 b8 40 e7 ff ff ff 	movabs rax,0xffffffffffffe740
    3348:	ff ff ff 
    334b:	49 8d 3c 07          	lea    rdi,[r15+rax*1]
    334f:	31 c0                	xor    eax,eax
    3351:	48 8b 74 24 58       	mov    rsi,QWORD PTR [rsp+0x58]
    3356:	fc                   	cld
    3357:	ff d3                	call   rbx
    3359:	58                   	pop    rax
    335a:	5a                   	pop    rdx
    335b:	59                   	pop    rcx
    335c:	5b                   	pop    rbx
    335d:	5e                   	pop    rsi
    335e:	5f                   	pop    rdi
    335f:	41 58                	pop    r8
    3361:	41 59                	pop    r9
    3363:	41 5a                	pop    r10
    3365:	41 5b                	pop    r11
    3367:	41 5f                	pop    r15
    3369:	48 cf                	iretq
    336b:	0f 1f 44 00 00       	nop    DWORD PTR [rax+rax*1+0x0]

0000000000003370 <exc_cso_old>:
    3370:	41 57                	push   r15
    3372:	4c 8d 3d f7 ff ff ff 	lea    r15,[rip+0xfffffffffffffff7]        # 3370 <exc_cso_old>
    3379:	41 53                	push   r11
    337b:	49 bb 20 64 00 00 00 	movabs r11,0x6420
    3382:	00 00 00 
    3385:	4d 01 df             	add    r15,r11
    3388:	41 52                	push   r10
    338a:	41 51                	push   r9
    338c:	41 50                	push   r8
    338e:	57                   	push   rdi
    338f:	56                   	push   rsi
    3390:	53                   	push   rbx
    3391:	48 bb c1 c1 ff ff ff 	movabs rbx,0xffffffffffffc1c1
    3398:	ff ff ff 
    339b:	4c 01 fb             	add    rbx,r15
    339e:	51                   	push   rcx
    339f:	52                   	push   rdx
    33a0:	50                   	push   rax
    33a1:	48 b8 41 e6 ff ff ff 	movabs rax,0xffffffffffffe641
    33a8:	ff ff ff 
    33ab:	49 8d 3c 07          	lea    rdi,[r15+rax*1]
    33af:	31 c0                	xor    eax,eax
    33b1:	48 8b 74 24 58       	mov    rsi,QWORD PTR [rsp+0x58]
    33b6:	fc                   	cld
    33b7:	ff d3                	call   rbx
    33b9:	58                   	pop    rax
    33ba:	5a                   	pop    rdx
    33bb:	59                   	pop    rcx
    33bc:	5b                   	pop    rbx
    33bd:	5e                   	pop    rsi
    33be:	5f                   	pop    rdi
    33bf:	41 58                	pop    r8
    33c1:	41 59                	pop    r9
    33c3:	41 5a                	pop    r10
    33c5:	41 5b                	pop    r11
    33c7:	41 5f                	pop    r15
    33c9:	48 cf                	iretq
    33cb:	0f 1f 44 00 00       	nop    DWORD PTR [rax+rax*1+0x0]

00000000000033d0 <exc_invalid_tss>:
    33d0:	41 57                	push   r15
    33d2:	4c 8d 3d f7 ff ff ff 	lea    r15,[rip+0xfffffffffffffff7]        # 33d0 <exc_invalid_tss>
    33d9:	41 53                	push   r11
    33db:	49 bb c0 63 00 00 00 	movabs r11,0x63c0
    33e2:	00 00 00 
    33e5:	4d 01 df             	add    r15,r11
    33e8:	41 52                	push   r10
    33ea:	41 51                	push   r9
    33ec:	41 50                	push   r8
    33ee:	57                   	push   rdi
    33ef:	56                   	push   rsi
    33f0:	53                   	push   rbx
    33f1:	48 bb c1 c1 ff ff ff 	movabs rbx,0xffffffffffffc1c1
    33f8:	ff ff ff 
    33fb:	4c 01 fb             	add    rbx,r15
    33fe:	51                   	push   rcx
    33ff:	52                   	push   rdx
    3400:	50                   	push   rax
    3401:	48 b8 60 e7 ff ff ff 	movabs rax,0xffffffffffffe760
    3408:	ff ff ff 
    340b:	49 8d 3c 07          	lea    rdi,[r15+rax*1]
    340f:	31 c0                	xor    eax,eax
    3411:	48 8b 74 24 58       	mov    rsi,QWORD PTR [rsp+0x58]
    3416:	fc                   	cld
    3417:	ff d3                	call   rbx
    3419:	58                   	pop    rax
    341a:	5a                   	pop    rdx
    341b:	59                   	pop    rcx
    341c:	5b                   	pop    rbx
    341d:	5e                   	pop    rsi
    341e:	5f                   	pop    rdi
    341f:	41 58                	pop    r8
    3421:	41 59                	pop    r9
    3423:	41 5a                	pop    r10
    3425:	41 5b                	pop    r11
    3427:	41 5f                	pop    r15
    3429:	48 cf                	iretq
    342b:	0f 1f 44 00 00       	nop    DWORD PTR [rax+rax*1+0x0]

0000000000003430 <exc_segment_not_present>:
    3430:	41 57                	push   r15
    3432:	4c 8d 3d f7 ff ff ff 	lea    r15,[rip+0xfffffffffffffff7]        # 3430 <exc_segment_not_present>
    3439:	41 53                	push   r11
    343b:	49 bb 60 63 00 00 00 	movabs r11,0x6360
    3442:	00 00 00 
    3445:	4d 01 df             	add    r15,r11
    3448:	41 52                	push   r10
    344a:	41 51                	push   r9
    344c:	41 50                	push   r8
    344e:	57                   	push   rdi
    344f:	56                   	push   rsi
    3450:	53                   	push   rbx
    3451:	48 bb c1 c1 ff ff ff 	movabs rbx,0xffffffffffffc1c1
    3458:	ff ff ff 
    345b:	4c 01 fb             	add    rbx,r15
    345e:	51                   	push   rcx
    345f:	52                   	push   rdx
    3460:	50                   	push   rax
    3461:	48 b8 80 e7 ff ff ff 	movabs rax,0xffffffffffffe780
    3468:	ff ff ff 
    346b:	49 8d 3c 07          	lea    rdi,[r15+rax*1]
    346f:	31 c0                	xor    eax,eax
    3471:	48 8b 74 24 58       	mov    rsi,QWORD PTR [rsp+0x58]
    3476:	fc                   	cld
    3477:	ff d3                	call   rbx
    3479:	58                   	pop    rax
    347a:	5a                   	pop    rdx
    347b:	59                   	pop    rcx
    347c:	5b                   	pop    rbx
    347d:	5e                   	pop    rsi
    347e:	5f                   	pop    rdi
    347f:	41 58                	pop    r8
    3481:	41 59                	pop    r9
    3483:	41 5a                	pop    r10
    3485:	41 5b                	pop    r11
    3487:	41 5f                	pop    r15
    3489:	48 cf                	iretq
    348b:	0f 1f 44 00 00       	nop    DWORD PTR [rax+rax*1+0x0]

0000000000003490 <exc_stack_segment_fault>:
    3490:	41 57                	push   r15
    3492:	4c 8d 3d f7 ff ff ff 	lea    r15,[rip+0xfffffffffffffff7]        # 3490 <exc_stack_segment_fault>
    3499:	41 53                	push   r11
    349b:	49 bb 00 63 00 00 00 	movabs r11,0x6300
    34a2:	00 00 00 
    34a5:	4d 01 df             	add    r15,r11
    34a8:	41 52                	push   r10
    34aa:	41 51                	push   r9
    34ac:	41 50                	push   r8
    34ae:	57                   	push   rdi
    34af:	56                   	push   rsi
    34b0:	53                   	push   rbx
    34b1:	48 bb c1 c1 ff ff ff 	movabs rbx,0xffffffffffffc1c1
    34b8:	ff ff ff 
    34bb:	4c 01 fb             	add    rbx,r15
    34be:	51                   	push   rcx
    34bf:	52                   	push   rdx
    34c0:	50                   	push   rax
    34c1:	48 b8 a8 e7 ff ff ff 	movabs rax,0xffffffffffffe7a8
    34c8:	ff ff ff 
    34cb:	49 8d 3c 07          	lea    rdi,[r15+rax*1]
    34cf:	31 c0                	xor    eax,eax
    34d1:	48 8b 74 24 58       	mov    rsi,QWORD PTR [rsp+0x58]
    34d6:	fc                   	cld
    34d7:	ff d3                	call   rbx
    34d9:	58                   	pop    rax
    34da:	5a                   	pop    rdx
    34db:	59                   	pop    rcx
    34dc:	5b                   	pop    rbx
    34dd:	5e                   	pop    rsi
    34de:	5f                   	pop    rdi
    34df:	41 58                	pop    r8
    34e1:	41 59                	pop    r9
    34e3:	41 5a                	pop    r10
    34e5:	41 5b                	pop    r11
    34e7:	41 5f                	pop    r15
    34e9:	48 cf                	iretq
    34eb:	0f 1f 44 00 00       	nop    DWORD PTR [rax+rax*1+0x0]

00000000000034f0 <exc_general_protection_fault>:
    34f0:	41 57                	push   r15
    34f2:	4c 8d 3d f7 ff ff ff 	lea    r15,[rip+0xfffffffffffffff7]        # 34f0 <exc_general_protection_fault>
    34f9:	41 53                	push   r11
    34fb:	49 bb a0 62 00 00 00 	movabs r11,0x62a0
    3502:	00 00 00 
    3505:	4d 01 df             	add    r15,r11
    3508:	41 52                	push   r10
    350a:	41 51                	push   r9
    350c:	41 50                	push   r8
    350e:	57                   	push   rdi
    350f:	56                   	push   rsi
    3510:	53                   	push   rbx
    3511:	48 bb c1 c1 ff ff ff 	movabs rbx,0xffffffffffffc1c1
    3518:	ff ff ff 
    351b:	4c 01 fb             	add    rbx,r15
    351e:	51                   	push   rcx
    351f:	52                   	push   rdx
    3520:	50                   	push   rax
    3521:	48 b8 d0 e7 ff ff ff 	movabs rax,0xffffffffffffe7d0
    3528:	ff ff ff 
    352b:	49 8d 3c 07          	lea    rdi,[r15+rax*1]
    352f:	31 c0                	xor    eax,eax
    3531:	48 8b 74 24 58       	mov    rsi,QWORD PTR [rsp+0x58]
    3536:	fc                   	cld
    3537:	ff d3                	call   rbx
    3539:	58                   	pop    rax
    353a:	5a                   	pop    rdx
    353b:	59                   	pop    rcx
    353c:	5b                   	pop    rbx
    353d:	5e                   	pop    rsi
    353e:	5f                   	pop    rdi
    353f:	41 58                	pop    r8
    3541:	41 59                	pop    r9
    3543:	41 5a                	pop    r10
    3545:	41 5b                	pop    r11
    3547:	41 5f                	pop    r15
    3549:	48 cf                	iretq
    354b:	0f 1f 44 00 00       	nop    DWORD PTR [rax+rax*1+0x0]

0000000000003550 <exc_page_fault>:
    3550:	41 57                	push   r15
    3552:	4c 8d 3d f7 ff ff ff 	lea    r15,[rip+0xfffffffffffffff7]        # 3550 <exc_page_fault>
    3559:	41 53                	push   r11
    355b:	49 bb 40 62 00 00 00 	movabs r11,0x6240
    3562:	00 00 00 
    3565:	4d 01 df             	add    r15,r11
    3568:	41 52                	push   r10
    356a:	41 51                	push   r9
    356c:	41 50                	push   r8
    356e:	57                   	push   rdi
    356f:	56                   	push   rsi
    3570:	53                   	push   rbx
    3571:	48 bb c1 c1 ff ff ff 	movabs rbx,0xffffffffffffc1c1
    3578:	ff ff ff 
    357b:	4c 01 fb             	add    rbx,r15
    357e:	51                   	push   rcx
    357f:	52                   	push   rdx
    3580:	50                   	push   rax
    3581:	48 b8 59 e6 ff ff ff 	movabs rax,0xffffffffffffe659
    3588:	ff ff ff 
    358b:	49 8d 3c 07          	lea    rdi,[r15+rax*1]
    358f:	31 c0                	xor    eax,eax
    3591:	48 8b 74 24 58       	mov    rsi,QWORD PTR [rsp+0x58]
    3596:	fc                   	cld
    3597:	ff d3                	call   rbx
    3599:	eb fe                	jmp    3599 <exc_page_fault+0x49>
    359b:	0f 1f 44 00 00       	nop    DWORD PTR [rax+rax*1+0x0]

00000000000035a0 <exc_x87_floating_point_exception>:
    35a0:	41 57                	push   r15
    35a2:	4c 8d 3d f7 ff ff ff 	lea    r15,[rip+0xfffffffffffffff7]        # 35a0 <exc_x87_floating_point_exception>
    35a9:	41 53                	push   r11
    35ab:	49 bb f0 61 00 00 00 	movabs r11,0x61f0
    35b2:	00 00 00 
    35b5:	4d 01 df             	add    r15,r11
    35b8:	41 52                	push   r10
    35ba:	41 51                	push   r9
    35bc:	41 50                	push   r8
    35be:	57                   	push   rdi
    35bf:	56                   	push   rsi
    35c0:	53                   	push   rbx
    35c1:	48 bb c1 c1 ff ff ff 	movabs rbx,0xffffffffffffc1c1
    35c8:	ff ff ff 
    35cb:	4c 01 fb             	add    rbx,r15
    35ce:	51                   	push   rcx
    35cf:	52                   	push   rdx
    35d0:	50                   	push   rax
    35d1:	48 b8 00 e8 ff ff ff 	movabs rax,0xffffffffffffe800
    35d8:	ff ff ff 
    35db:	49 8d 3c 07          	lea    rdi,[r15+rax*1]
    35df:	31 c0                	xor    eax,eax
    35e1:	48 8b 74 24 58       	mov    rsi,QWORD PTR [rsp+0x58]
    35e6:	fc                   	cld
    35e7:	ff d3                	call   rbx
    35e9:	58                   	pop    rax
    35ea:	5a                   	pop    rdx
    35eb:	59                   	pop    rcx
    35ec:	5b                   	pop    rbx
    35ed:	5e                   	pop    rsi
    35ee:	5f                   	pop    rdi
    35ef:	41 58                	pop    r8
    35f1:	41 59                	pop    r9
    35f3:	41 5a                	pop    r10
    35f5:	41 5b                	pop    r11
    35f7:	41 5f                	pop    r15
    35f9:	48 cf                	iretq
    35fb:	0f 1f 44 00 00       	nop    DWORD PTR [rax+rax*1+0x0]

0000000000003600 <exc_alignment_check>:
    3600:	41 57                	push   r15
    3602:	4c 8d 3d f7 ff ff ff 	lea    r15,[rip+0xfffffffffffffff7]        # 3600 <exc_alignment_check>
    3609:	41 53                	push   r11
    360b:	49 bb 90 61 00 00 00 	movabs r11,0x6190
    3612:	00 00 00 
    3615:	4d 01 df             	add    r15,r11
    3618:	41 52                	push   r10
    361a:	41 51                	push   r9
    361c:	41 50                	push   r8
    361e:	57                   	push   rdi
    361f:	56                   	push   rsi
    3620:	53                   	push   rbx
    3621:	48 bb c1 c1 ff ff ff 	movabs rbx,0xffffffffffffc1c1
    3628:	ff ff ff 
    362b:	4c 01 fb             	add    rbx,r15
    362e:	51                   	push   rcx
    362f:	52                   	push   rdx
    3630:	50                   	push   rax
    3631:	48 b8 30 e8 ff ff ff 	movabs rax,0xffffffffffffe830
    3638:	ff ff ff 
    363b:	49 8d 3c 07          	lea    rdi,[r15+rax*1]
    363f:	31 c0                	xor    eax,eax
    3641:	48 8b 74 24 58       	mov    rsi,QWORD PTR [rsp+0x58]
    3646:	fc                   	cld
    3647:	ff d3                	call   rbx
    3649:	58                   	pop    rax
    364a:	5a                   	pop    rdx
    364b:	59                   	pop    rcx
    364c:	5b                   	pop    rbx
    364d:	5e                   	pop    rsi
    364e:	5f                   	pop    rdi
    364f:	41 58                	pop    r8
    3651:	41 59                	pop    r9
    3653:	41 5a                	pop    r10
    3655:	41 5b                	pop    r11
    3657:	41 5f                	pop    r15
    3659:	48 cf                	iretq
    365b:	0f 1f 44 00 00       	nop    DWORD PTR [rax+rax*1+0x0]

0000000000003660 <exc_machine_check>:
    3660:	41 57                	push   r15
    3662:	4c 8d 3d f7 ff ff ff 	lea    r15,[rip+0xfffffffffffffff7]        # 3660 <exc_machine_check>
    3669:	41 53                	push   r11
    366b:	49 bb 30 61 00 00 00 	movabs r11,0x6130
    3672:	00 00 00 
    3675:	4d 01 df             	add    r15,r11
    3678:	41 52                	push   r10
    367a:	41 51                	push   r9
    367c:	41 50                	push   r8
    367e:	57                   	push   rdi
    367f:	56                   	push   rsi
    3680:	53                   	push   rbx
    3681:	48 bb c1 c1 ff ff ff 	movabs rbx,0xffffffffffffc1c1
    3688:	ff ff ff 
    368b:	4c 01 fb             	add    rbx,r15
    368e:	51                   	push   rcx
    368f:	52                   	push   rdx
    3690:	50                   	push   rax
    3691:	48 b8 58 e8 ff ff ff 	movabs rax,0xffffffffffffe858
    3698:	ff ff ff 
    369b:	49 8d 3c 07          	lea    rdi,[r15+rax*1]
    369f:	31 c0                	xor    eax,eax
    36a1:	48 8b 74 24 58       	mov    rsi,QWORD PTR [rsp+0x58]
    36a6:	fc                   	cld
    36a7:	ff d3                	call   rbx
    36a9:	58                   	pop    rax
    36aa:	5a                   	pop    rdx
    36ab:	59                   	pop    rcx
    36ac:	5b                   	pop    rbx
    36ad:	5e                   	pop    rsi
    36ae:	5f                   	pop    rdi
    36af:	41 58                	pop    r8
    36b1:	41 59                	pop    r9
    36b3:	41 5a                	pop    r10
    36b5:	41 5b                	pop    r11
    36b7:	41 5f                	pop    r15
    36b9:	48 cf                	iretq
    36bb:	0f 1f 44 00 00       	nop    DWORD PTR [rax+rax*1+0x0]

00000000000036c0 <exc_simd_floating_point_exception>:
    36c0:	41 57                	push   r15
    36c2:	4c 8d 3d f7 ff ff ff 	lea    r15,[rip+0xfffffffffffffff7]        # 36c0 <exc_simd_floating_point_exception>
    36c9:	41 53                	push   r11
    36cb:	49 bb d0 60 00 00 00 	movabs r11,0x60d0
    36d2:	00 00 00 
    36d5:	4d 01 df             	add    r15,r11
    36d8:	41 52                	push   r10
    36da:	41 51                	push   r9
    36dc:	41 50                	push   r8
    36de:	57                   	push   rdi
    36df:	56                   	push   rsi
    36e0:	53                   	push   rbx
    36e1:	48 bb c1 c1 ff ff ff 	movabs rbx,0xffffffffffffc1c1
    36e8:	ff ff ff 
    36eb:	4c 01 fb             	add    rbx,r15
    36ee:	51                   	push   rcx
    36ef:	52                   	push   rdx
    36f0:	50                   	push   rax
    36f1:	48 b8 80 e8 ff ff ff 	movabs rax,0xffffffffffffe880
    36f8:	ff ff ff 
    36fb:	49 8d 3c 07          	lea    rdi,[r15+rax*1]
    36ff:	31 c0                	xor    eax,eax
    3701:	48 8b 74 24 58       	mov    rsi,QWORD PTR [rsp+0x58]
    3706:	fc                   	cld
    3707:	ff d3                	call   rbx
    3709:	58                   	pop    rax
    370a:	5a                   	pop    rdx
    370b:	59                   	pop    rcx
    370c:	5b                   	pop    rbx
    370d:	5e                   	pop    rsi
    370e:	5f                   	pop    rdi
    370f:	41 58                	pop    r8
    3711:	41 59                	pop    r9
    3713:	41 5a                	pop    r10
    3715:	41 5b                	pop    r11
    3717:	41 5f                	pop    r15
    3719:	48 cf                	iretq
    371b:	0f 1f 44 00 00       	nop    DWORD PTR [rax+rax*1+0x0]

0000000000003720 <exc_virtualization_exception>:
    3720:	41 57                	push   r15
    3722:	4c 8d 3d f7 ff ff ff 	lea    r15,[rip+0xfffffffffffffff7]        # 3720 <exc_virtualization_exception>
    3729:	41 53                	push   r11
    372b:	49 bb 70 60 00 00 00 	movabs r11,0x6070
    3732:	00 00 00 
    3735:	4d 01 df             	add    r15,r11
    3738:	41 52                	push   r10
    373a:	41 51                	push   r9
    373c:	41 50                	push   r8
    373e:	57                   	push   rdi
    373f:	56                   	push   rsi
    3740:	53                   	push   rbx
    3741:	48 bb c1 c1 ff ff ff 	movabs rbx,0xffffffffffffc1c1
    3748:	ff ff ff 
    374b:	4c 01 fb             	add    rbx,r15
    374e:	51                   	push   rcx
    374f:	52                   	push   rdx
    3750:	50                   	push   rax
    3751:	48 b8 b8 e8 ff ff ff 	movabs rax,0xffffffffffffe8b8
    3758:	ff ff ff 
    375b:	49 8d 3c 07          	lea    rdi,[r15+rax*1]
    375f:	31 c0                	xor    eax,eax
    3761:	48 8b 74 24 58       	mov    rsi,QWORD PTR [rsp+0x58]
    3766:	fc                   	cld
    3767:	ff d3                	call   rbx
    3769:	58                   	pop    rax
    376a:	5a                   	pop    rdx
    376b:	59                   	pop    rcx
    376c:	5b                   	pop    rbx
    376d:	5e                   	pop    rsi
    376e:	5f                   	pop    rdi
    376f:	41 58                	pop    r8
    3771:	41 59                	pop    r9
    3773:	41 5a                	pop    r10
    3775:	41 5b                	pop    r11
    3777:	41 5f                	pop    r15
    3779:	48 cf                	iretq
    377b:	0f 1f 44 00 00       	nop    DWORD PTR [rax+rax*1+0x0]

0000000000003780 <exc_control_protection_exception>:
    3780:	41 57                	push   r15
    3782:	4c 8d 3d f7 ff ff ff 	lea    r15,[rip+0xfffffffffffffff7]        # 3780 <exc_control_protection_exception>
    3789:	41 53                	push   r11
    378b:	49 bb 10 60 00 00 00 	movabs r11,0x6010
    3792:	00 00 00 
    3795:	4d 01 df             	add    r15,r11
    3798:	41 52                	push   r10
    379a:	41 51                	push   r9
    379c:	41 50                	push   r8
    379e:	57                   	push   rdi
    379f:	56                   	push   rsi
    37a0:	53                   	push   rbx
    37a1:	48 bb c1 c1 ff ff ff 	movabs rbx,0xffffffffffffc1c1
    37a8:	ff ff ff 
    37ab:	4c 01 fb             	add    rbx,r15
    37ae:	51                   	push   rcx
    37af:	52                   	push   rdx
    37b0:	50                   	push   rax
    37b1:	48 b8 e8 e8 ff ff ff 	movabs rax,0xffffffffffffe8e8
    37b8:	ff ff ff 
    37bb:	49 8d 3c 07          	lea    rdi,[r15+rax*1]
    37bf:	31 c0                	xor    eax,eax
    37c1:	48 8b 74 24 58       	mov    rsi,QWORD PTR [rsp+0x58]
    37c6:	fc                   	cld
    37c7:	ff d3                	call   rbx
    37c9:	58                   	pop    rax
    37ca:	5a                   	pop    rdx
    37cb:	59                   	pop    rcx
    37cc:	5b                   	pop    rbx
    37cd:	5e                   	pop    rsi
    37ce:	5f                   	pop    rdi
    37cf:	41 58                	pop    r8
    37d1:	41 59                	pop    r9
    37d3:	41 5a                	pop    r10
    37d5:	41 5b                	pop    r11
    37d7:	41 5f                	pop    r15
    37d9:	48 cf                	iretq
    37db:	0f 1f 44 00 00       	nop    DWORD PTR [rax+rax*1+0x0]

00000000000037e0 <exc_hypervisor_injection_exception>:
    37e0:	41 57                	push   r15
    37e2:	4c 8d 3d f7 ff ff ff 	lea    r15,[rip+0xfffffffffffffff7]        # 37e0 <exc_hypervisor_injection_exception>
    37e9:	41 53                	push   r11
    37eb:	49 bb b0 5f 00 00 00 	movabs r11,0x5fb0
    37f2:	00 00 00 
    37f5:	4d 01 df             	add    r15,r11
    37f8:	41 52                	push   r10
    37fa:	41 51                	push   r9
    37fc:	41 50                	push   r8
    37fe:	57                   	push   rdi
    37ff:	56                   	push   rsi
    3800:	53                   	push   rbx
    3801:	48 bb c1 c1 ff ff ff 	movabs rbx,0xffffffffffffc1c1
    3808:	ff ff ff 
    380b:	4c 01 fb             	add    rbx,r15
    380e:	51                   	push   rcx
    380f:	52                   	push   rdx
    3810:	50                   	push   rax
    3811:	48 b8 18 e9 ff ff ff 	movabs rax,0xffffffffffffe918
    3818:	ff ff ff 
    381b:	49 8d 3c 07          	lea    rdi,[r15+rax*1]
    381f:	31 c0                	xor    eax,eax
    3821:	48 8b 74 24 58       	mov    rsi,QWORD PTR [rsp+0x58]
    3826:	fc                   	cld
    3827:	ff d3                	call   rbx
    3829:	58                   	pop    rax
    382a:	5a                   	pop    rdx
    382b:	59                   	pop    rcx
    382c:	5b                   	pop    rbx
    382d:	5e                   	pop    rsi
    382e:	5f                   	pop    rdi
    382f:	41 58                	pop    r8
    3831:	41 59                	pop    r9
    3833:	41 5a                	pop    r10
    3835:	41 5b                	pop    r11
    3837:	41 5f                	pop    r15
    3839:	48 cf                	iretq
    383b:	0f 1f 44 00 00       	nop    DWORD PTR [rax+rax*1+0x0]

0000000000003840 <exc_vmm_communication_exception>:
    3840:	41 57                	push   r15
    3842:	4c 8d 3d f7 ff ff ff 	lea    r15,[rip+0xfffffffffffffff7]        # 3840 <exc_vmm_communication_exception>
    3849:	41 53                	push   r11
    384b:	49 bb 50 5f 00 00 00 	movabs r11,0x5f50
    3852:	00 00 00 
    3855:	4d 01 df             	add    r15,r11
    3858:	41 52                	push   r10
    385a:	41 51                	push   r9
    385c:	41 50                	push   r8
    385e:	57                   	push   rdi
    385f:	56                   	push   rsi
    3860:	53                   	push   rbx
    3861:	48 bb c1 c1 ff ff ff 	movabs rbx,0xffffffffffffc1c1
    3868:	ff ff ff 
    386b:	4c 01 fb             	add    rbx,r15
    386e:	51                   	push   rcx
    386f:	52                   	push   rdx
    3870:	50                   	push   rax
    3871:	48 b8 50 e9 ff ff ff 	movabs rax,0xffffffffffffe950
    3878:	ff ff ff 
    387b:	49 8d 3c 07          	lea    rdi,[r15+rax*1]
    387f:	31 c0                	xor    eax,eax
    3881:	48 8b 74 24 58       	mov    rsi,QWORD PTR [rsp+0x58]
    3886:	fc                   	cld
    3887:	ff d3                	call   rbx
    3889:	58                   	pop    rax
    388a:	5a                   	pop    rdx
    388b:	59                   	pop    rcx
    388c:	5b                   	pop    rbx
    388d:	5e                   	pop    rsi
    388e:	5f                   	pop    rdi
    388f:	41 58                	pop    r8
    3891:	41 59                	pop    r9
    3893:	41 5a                	pop    r10
    3895:	41 5b                	pop    r11
    3897:	41 5f                	pop    r15
    3899:	48 cf                	iretq
    389b:	0f 1f 44 00 00       	nop    DWORD PTR [rax+rax*1+0x0]

00000000000038a0 <exc_security_exception>:
    38a0:	41 57                	push   r15
    38a2:	4c 8d 3d f7 ff ff ff 	lea    r15,[rip+0xfffffffffffffff7]        # 38a0 <exc_security_exception>
    38a9:	41 53                	push   r11
    38ab:	49 bb f0 5e 00 00 00 	movabs r11,0x5ef0
    38b2:	00 00 00 
    38b5:	4d 01 df             	add    r15,r11
    38b8:	41 52                	push   r10
    38ba:	41 51                	push   r9
    38bc:	41 50                	push   r8
    38be:	57                   	push   rdi
    38bf:	56                   	push   rsi
    38c0:	53                   	push   rbx
    38c1:	48 bb c1 c1 ff ff ff 	movabs rbx,0xffffffffffffc1c1
    38c8:	ff ff ff 
    38cb:	4c 01 fb             	add    rbx,r15
    38ce:	51                   	push   rcx
    38cf:	52                   	push   rdx
    38d0:	50                   	push   rax
    38d1:	48 b8 80 e9 ff ff ff 	movabs rax,0xffffffffffffe980
    38d8:	ff ff ff 
    38db:	49 8d 3c 07          	lea    rdi,[r15+rax*1]
    38df:	31 c0                	xor    eax,eax
    38e1:	48 8b 74 24 58       	mov    rsi,QWORD PTR [rsp+0x58]
    38e6:	fc                   	cld
    38e7:	ff d3                	call   rbx
    38e9:	58                   	pop    rax
    38ea:	5a                   	pop    rdx
    38eb:	59                   	pop    rcx
    38ec:	5b                   	pop    rbx
    38ed:	5e                   	pop    rsi
    38ee:	5f                   	pop    rdi
    38ef:	41 58                	pop    r8
    38f1:	41 59                	pop    r9
    38f3:	41 5a                	pop    r10
    38f5:	41 5b                	pop    r11
    38f7:	41 5f                	pop    r15
    38f9:	48 cf                	iretq
    38fb:	0f 1f 44 00 00       	nop    DWORD PTR [rax+rax*1+0x0]

0000000000003900 <inportb>:
    3900:	66 89 fa             	mov    dx,di
    3903:	ec                   	in     al,dx
    3904:	c3                   	ret

0000000000003905 <outportb>:
    3905:	66 89 fa             	mov    dx,di
    3908:	40 88 f0             	mov    al,sil
    390b:	ee                   	out    dx,al
    390c:	c3                   	ret

000000000000390d <waitport>:
    390d:	66 ba 80 00          	mov    dx,0x80
    3911:	b0 00                	mov    al,0x0
    3913:	ee                   	out    dx,al
    3914:	c3                   	ret

0000000000003915 <rdmsr>:
    3915:	89 f9                	mov    ecx,edi
    3917:	0f 32                	rdmsr
    3919:	48 c1 e2 20          	shl    rdx,0x20
    391d:	48 09 d0             	or     rax,rdx
    3920:	c3                   	ret

0000000000003921 <wrmsr>:
    3921:	89 f9                	mov    ecx,edi
    3923:	89 f0                	mov    eax,esi
    3925:	48 89 f2             	mov    rdx,rsi
    3928:	48 c1 ea 20          	shr    rdx,0x20
    392c:	0f 30                	wrmsr
    392e:	c3                   	ret
    392f:	90                   	nop

0000000000003930 <kbd_key_buffer_push>:
    3930:	41 57                	push   r15
    3932:	49 bb 60 5e 00 00 00 	movabs r11,0x5e60
    3939:	00 00 00 
    393c:	4c 8d 3d ed ff ff ff 	lea    r15,[rip+0xffffffffffffffed]        # 3930 <kbd_key_buffer_push>
    3943:	4d 01 df             	add    r15,r11
    3946:	53                   	push   rbx
    3947:	89 fb                	mov    ebx,edi
    3949:	48 83 ec 08          	sub    rsp,0x8
    394d:	81 ff b6 00 00 00    	cmp    edi,0xb6
    3953:	0f 84 07 01 00 00    	je     3a60 <kbd_key_buffer_push+0x130>
    3959:	0f 87 d1 00 00 00    	ja     3a30 <kbd_key_buffer_push+0x100>
    395f:	83 ff 36             	cmp    edi,0x36
    3962:	0f 84 98 00 00 00    	je     3a00 <kbd_key_buffer_push+0xd0>
    3968:	81 ff aa 00 00 00    	cmp    edi,0xaa
    396e:	0f 84 ec 00 00 00    	je     3a60 <kbd_key_buffer_push+0x130>
    3974:	83 ff 2a             	cmp    edi,0x2a
    3977:	0f 84 83 00 00 00    	je     3a00 <kbd_key_buffer_push+0xd0>
    397d:	48 b8 70 28 00 00 00 	movabs rax,0x2870
    3984:	00 00 00 
    3987:	41 0f b6 34 07       	movzx  esi,BYTE PTR [r15+rax*1]
    398c:	48 b8 20 c4 ff ff ff 	movabs rax,0xffffffffffffc420
    3993:	ff ff ff 
    3996:	89 df                	mov    edi,ebx
    3998:	4c 01 f8             	add    rax,r15
    399b:	ff d0                	call   rax
    399d:	48 b9 d0 28 00 00 00 	movabs rcx,0x28d0
    39a4:	00 00 00 
    39a7:	42 8b 14 39          	mov    edx,DWORD PTR [rcx+r15*1]
    39ab:	84 c0                	test   al,al
    39ad:	74 71                	je     3a20 <kbd_key_buffer_push+0xf0>
    39af:	83 fa 0f             	cmp    edx,0xf
    39b2:	77 41                	ja     39f5 <kbd_key_buffer_push+0xc5>
    39b4:	48 bf 74 28 00 00 00 	movabs rdi,0x2874
    39bb:	00 00 00 
    39be:	0f be c0             	movsx  eax,al
    39c1:	41 8b 34 3f          	mov    esi,DWORD PTR [r15+rdi*1]
    39c5:	44 8d 46 01          	lea    r8d,[rsi+0x1]
    39c9:	45 89 04 3f          	mov    DWORD PTR [r15+rdi*1],r8d
    39cd:	48 bf 90 28 00 00 00 	movabs rdi,0x2890
    39d4:	00 00 00 
    39d7:	4c 01 ff             	add    rdi,r15
    39da:	89 04 b7             	mov    DWORD PTR [rdi+rsi*4],eax
    39dd:	8d 42 01             	lea    eax,[rdx+0x1]
    39e0:	42 89 04 39          	mov    DWORD PTR [rcx+r15*1],eax
    39e4:	48 b8 f0 28 00 00 00 	movabs rax,0x28f0
    39eb:	00 00 00 
    39ee:	49 01 c7             	add    r15,rax
    39f1:	41 89 1c 97          	mov    DWORD PTR [r15+rdx*4],ebx
    39f5:	48 83 c4 08          	add    rsp,0x8
    39f9:	5b                   	pop    rbx
    39fa:	41 5f                	pop    r15
    39fc:	c3                   	ret
    39fd:	0f 1f 00             	nop    DWORD PTR [rax]
    3a00:	48 b8 70 28 00 00 00 	movabs rax,0x2870
    3a07:	00 00 00 
    3a0a:	be 01 00 00 00       	mov    esi,0x1
    3a0f:	41 c6 04 07 01       	mov    BYTE PTR [r15+rax*1],0x1
    3a14:	e9 73 ff ff ff       	jmp    398c <kbd_key_buffer_push+0x5c>
    3a19:	0f 1f 80 00 00 00 00 	nop    DWORD PTR [rax+0x0]
    3a20:	83 fa 0f             	cmp    edx,0xf
    3a23:	76 b8                	jbe    39dd <kbd_key_buffer_push+0xad>
    3a25:	48 83 c4 08          	add    rsp,0x8
    3a29:	5b                   	pop    rbx
    3a2a:	41 5f                	pop    r15
    3a2c:	c3                   	ret
    3a2d:	0f 1f 00             	nop    DWORD PTR [rax]
    3a30:	81 ff ba 00 00 00    	cmp    edi,0xba
    3a36:	0f 85 41 ff ff ff    	jne    397d <kbd_key_buffer_push+0x4d>
    3a3c:	48 b8 70 28 00 00 00 	movabs rax,0x2870
    3a43:	00 00 00 
    3a46:	41 0f b6 34 07       	movzx  esi,BYTE PTR [r15+rax*1]
    3a4b:	83 f6 01             	xor    esi,0x1
    3a4e:	41 88 34 07          	mov    BYTE PTR [r15+rax*1],sil
    3a52:	40 0f b6 f6          	movzx  esi,sil
    3a56:	e9 31 ff ff ff       	jmp    398c <kbd_key_buffer_push+0x5c>
    3a5b:	0f 1f 44 00 00       	nop    DWORD PTR [rax+rax*1+0x0]
    3a60:	48 b8 70 28 00 00 00 	movabs rax,0x2870
    3a67:	00 00 00 
    3a6a:	31 f6                	xor    esi,esi
    3a6c:	41 c6 04 07 00       	mov    BYTE PTR [r15+rax*1],0x0
    3a71:	e9 16 ff ff ff       	jmp    398c <kbd_key_buffer_push+0x5c>
    3a76:	66 2e 0f 1f 84 00 00 	cs nop WORD PTR [rax+rax*1+0x0]
    3a7d:	00 00 00 

0000000000003a80 <kbd_key_buffer_pop>:
    3a80:	48 8d 15 f9 ff ff ff 	lea    rdx,[rip+0xfffffffffffffff9]        # 3a80 <kbd_key_buffer_pop>
    3a87:	49 bb 10 5d 00 00 00 	movabs r11,0x5d10
    3a8e:	00 00 00 
    3a91:	48 be d0 28 00 00 00 	movabs rsi,0x28d0
    3a98:	00 00 00 
    3a9b:	4c 01 da             	add    rdx,r11
    3a9e:	8b 04 32             	mov    eax,DWORD PTR [rdx+rsi*1]
    3aa1:	85 c0                	test   eax,eax
    3aa3:	74 22                	je     3ac7 <kbd_key_buffer_pop+0x47>
    3aa5:	48 b9 f0 28 00 00 00 	movabs rcx,0x28f0
    3aac:	00 00 00 
    3aaf:	89 c7                	mov    edi,eax
    3ab1:	ff c8                	dec    eax
    3ab3:	48 01 d1             	add    rcx,rdx
    3ab6:	89 04 32             	mov    DWORD PTR [rdx+rsi*1],eax
    3ab9:	c7 04 b9 00 00 00 00 	mov    DWORD PTR [rcx+rdi*4],0x0
    3ac0:	c7 04 81 00 00 00 00 	mov    DWORD PTR [rcx+rax*4],0x0
    3ac7:	c3                   	ret
    3ac8:	0f 1f 84 00 00 00 00 	nop    DWORD PTR [rax+rax*1+0x0]
    3acf:	00 

0000000000003ad0 <kbd_getkey>:
    3ad0:	48 8d 15 f9 ff ff ff 	lea    rdx,[rip+0xfffffffffffffff9]        # 3ad0 <kbd_getkey>
    3ad7:	49 bb c0 5c 00 00 00 	movabs r11,0x5cc0
    3ade:	00 00 00 
    3ae1:	48 be d0 28 00 00 00 	movabs rsi,0x28d0
    3ae8:	00 00 00 
    3aeb:	4c 01 da             	add    rdx,r11
    3aee:	8b 04 32             	mov    eax,DWORD PTR [rdx+rsi*1]
    3af1:	85 c0                	test   eax,eax
    3af3:	74 28                	je     3b1d <kbd_getkey+0x4d>
    3af5:	48 b9 f0 28 00 00 00 	movabs rcx,0x28f0
    3afc:	00 00 00 
    3aff:	8d 78 ff             	lea    edi,[rax-0x1]
    3b02:	48 01 d1             	add    rcx,rdx
    3b05:	89 3c 32             	mov    DWORD PTR [rdx+rsi*1],edi
    3b08:	44 8b 0c b9          	mov    r9d,DWORD PTR [rcx+rdi*4]
    3b0c:	c7 04 81 00 00 00 00 	mov    DWORD PTR [rcx+rax*4],0x0
    3b13:	c7 04 b9 00 00 00 00 	mov    DWORD PTR [rcx+rdi*4],0x0
    3b1a:	44 89 c8             	mov    eax,r9d
    3b1d:	c3                   	ret
    3b1e:	66 90                	xchg   ax,ax

0000000000003b20 <kbd_input_buffer_push>:
    3b20:	48 8d 05 f9 ff ff ff 	lea    rax,[rip+0xfffffffffffffff9]        # 3b20 <kbd_input_buffer_push>
    3b27:	49 bb 70 5c 00 00 00 	movabs r11,0x5c70
    3b2e:	00 00 00 
    3b31:	48 ba d0 28 00 00 00 	movabs rdx,0x28d0
    3b38:	00 00 00 
    3b3b:	4c 01 d8             	add    rax,r11
    3b3e:	83 3c 10 0f          	cmp    DWORD PTR [rax+rdx*1],0xf
    3b42:	77 27                	ja     3b6b <kbd_input_buffer_push+0x4b>
    3b44:	48 b9 74 28 00 00 00 	movabs rcx,0x2874
    3b4b:	00 00 00 
    3b4e:	40 0f be ff          	movsx  edi,dil
    3b52:	8b 14 08             	mov    edx,DWORD PTR [rax+rcx*1]
    3b55:	8d 72 01             	lea    esi,[rdx+0x1]
    3b58:	89 34 08             	mov    DWORD PTR [rax+rcx*1],esi
    3b5b:	48 b9 90 28 00 00 00 	movabs rcx,0x2890
    3b62:	00 00 00 
    3b65:	48 01 c8             	add    rax,rcx
    3b68:	89 3c 90             	mov    DWORD PTR [rax+rdx*4],edi
    3b6b:	c3                   	ret
    3b6c:	0f 1f 40 00          	nop    DWORD PTR [rax+0x0]

0000000000003b70 <kbd_input_buffer_pop>:
    3b70:	48 8d 15 f9 ff ff ff 	lea    rdx,[rip+0xfffffffffffffff9]        # 3b70 <kbd_input_buffer_pop>
    3b77:	49 bb 20 5c 00 00 00 	movabs r11,0x5c20
    3b7e:	00 00 00 
    3b81:	48 be 74 28 00 00 00 	movabs rsi,0x2874
    3b88:	00 00 00 
    3b8b:	4c 01 da             	add    rdx,r11
    3b8e:	8b 04 32             	mov    eax,DWORD PTR [rdx+rsi*1]
    3b91:	85 c0                	test   eax,eax
    3b93:	74 22                	je     3bb7 <kbd_input_buffer_pop+0x47>
    3b95:	48 b9 90 28 00 00 00 	movabs rcx,0x2890
    3b9c:	00 00 00 
    3b9f:	89 c7                	mov    edi,eax
    3ba1:	ff c8                	dec    eax
    3ba3:	48 01 d1             	add    rcx,rdx
    3ba6:	89 04 32             	mov    DWORD PTR [rdx+rsi*1],eax
    3ba9:	c7 04 b9 00 00 00 00 	mov    DWORD PTR [rcx+rdi*4],0x0
    3bb0:	c7 04 81 00 00 00 00 	mov    DWORD PTR [rcx+rax*4],0x0
    3bb7:	c3                   	ret
    3bb8:	0f 1f 84 00 00 00 00 	nop    DWORD PTR [rax+rax*1+0x0]
    3bbf:	00 

0000000000003bc0 <kbd_getchar>:
    3bc0:	48 8d 05 f9 ff ff ff 	lea    rax,[rip+0xfffffffffffffff9]        # 3bc0 <kbd_getchar>
    3bc7:	49 bb d0 5b 00 00 00 	movabs r11,0x5bd0
    3bce:	00 00 00 
    3bd1:	48 bf 74 28 00 00 00 	movabs rdi,0x2874
    3bd8:	00 00 00 
    3bdb:	31 f6                	xor    esi,esi
    3bdd:	4c 01 d8             	add    rax,r11
    3be0:	8b 14 38             	mov    edx,DWORD PTR [rax+rdi*1]
    3be3:	85 d2                	test   edx,edx
    3be5:	74 29                	je     3c10 <kbd_getchar+0x50>
    3be7:	48 b9 90 28 00 00 00 	movabs rcx,0x2890
    3bee:	00 00 00 
    3bf1:	44 8d 42 ff          	lea    r8d,[rdx-0x1]
    3bf5:	48 01 c1             	add    rcx,rax
    3bf8:	44 89 04 38          	mov    DWORD PTR [rax+rdi*1],r8d
    3bfc:	42 0f b6 34 81       	movzx  esi,BYTE PTR [rcx+r8*4]
    3c01:	c7 04 91 00 00 00 00 	mov    DWORD PTR [rcx+rdx*4],0x0
    3c08:	42 c7 04 81 00 00 00 	mov    DWORD PTR [rcx+r8*4],0x0
    3c0f:	00 
    3c10:	89 f0                	mov    eax,esi
    3c12:	c3                   	ret
    3c13:	66 66 2e 0f 1f 84 00 	data16 cs nop WORD PTR [rax+rax*1+0x0]
    3c1a:	00 00 00 00 
    3c1e:	66 90                	xchg   ax,ax

0000000000003c20 <kbd_init>:
    3c20:	41 57                	push   r15
    3c22:	49 bb 70 5b 00 00 00 	movabs r11,0x5b70
    3c29:	00 00 00 
    3c2c:	4c 8d 3d ed ff ff ff 	lea    r15,[rip+0xffffffffffffffed]        # 3c20 <kbd_init>
    3c33:	48 b8 f0 28 00 00 00 	movabs rax,0x28f0
    3c3a:	00 00 00 
    3c3d:	4d 01 df             	add    r15,r11
    3c40:	ba 10 00 00 00       	mov    edx,0x10
    3c45:	31 f6                	xor    esi,esi
    3c47:	49 8d 3c 07          	lea    rdi,[r15+rax*1]
    3c4b:	53                   	push   rbx
    3c4c:	48 bb e0 ae ff ff ff 	movabs rbx,0xffffffffffffaee0
    3c53:	ff ff ff 
    3c56:	4c 01 fb             	add    rbx,r15
    3c59:	48 83 ec 08          	sub    rsp,0x8
    3c5d:	ff d3                	call   rbx
    3c5f:	48 b8 90 28 00 00 00 	movabs rax,0x2890
    3c66:	00 00 00 
    3c69:	ba 10 00 00 00       	mov    edx,0x10
    3c6e:	31 f6                	xor    esi,esi
    3c70:	49 8d 3c 07          	lea    rdi,[r15+rax*1]
    3c74:	ff d3                	call   rbx
    3c76:	48 b8 d0 28 00 00 00 	movabs rax,0x28d0
    3c7d:	00 00 00 
    3c80:	41 c7 04 07 00 00 00 	mov    DWORD PTR [r15+rax*1],0x0
    3c87:	00 
    3c88:	48 b8 74 28 00 00 00 	movabs rax,0x2874
    3c8f:	00 00 00 
    3c92:	41 c7 04 07 00 00 00 	mov    DWORD PTR [r15+rax*1],0x0
    3c99:	00 
    3c9a:	48 b8 70 28 00 00 00 	movabs rax,0x2870
    3ca1:	00 00 00 
    3ca4:	41 c6 04 07 00       	mov    BYTE PTR [r15+rax*1],0x0
    3ca9:	48 83 c4 08          	add    rsp,0x8
    3cad:	5b                   	pop    rbx
    3cae:	41 5f                	pop    r15
    3cb0:	c3                   	ret
    3cb1:	66 2e 0f 1f 84 00 00 	cs nop WORD PTR [rax+rax*1+0x0]
    3cb8:	00 00 00 
    3cbb:	0f 1f 44 00 00       	nop    DWORD PTR [rax+rax*1+0x0]

0000000000003cc0 <start_kernel>:
    3cc0:	41 57                	push   r15
    3cc2:	49 bb d0 5a 00 00 00 	movabs r11,0x5ad0
    3cc9:	00 00 00 
    3ccc:	4c 8d 3d ed ff ff ff 	lea    r15,[rip+0xffffffffffffffed]        # 3cc0 <start_kernel>
    3cd3:	48 ba 70 d1 ff ff ff 	movabs rdx,0xffffffffffffd170
    3cda:	ff ff ff 
    3cdd:	4d 01 df             	add    r15,r11
    3ce0:	31 c0                	xor    eax,eax
    3ce2:	4c 01 fa             	add    rdx,r15
    3ce5:	41 56                	push   r14
    3ce7:	49 be 20 d0 ff ff ff 	movabs r14,0xffffffffffffd020
    3cee:	ff ff ff 
    3cf1:	4d 01 fe             	add    r14,r15
    3cf4:	41 55                	push   r13
    3cf6:	41 54                	push   r12
    3cf8:	49 bc 30 29 00 00 00 	movabs r12,0x2930
    3cff:	00 00 00 
    3d02:	55                   	push   rbp
    3d03:	48 bd c1 c1 ff ff ff 	movabs rbp,0xffffffffffffc1c1
    3d0a:	ff ff ff 
    3d0d:	4e 8d 6c 3d 00       	lea    r13,[rbp+r15*1+0x0]
    3d12:	53                   	push   rbx
    3d13:	48 bb 40 29 00 00 00 	movabs rbx,0x2940
    3d1a:	00 00 00 
    3d1d:	48 83 ec 18          	sub    rsp,0x18
    3d21:	4b 89 3c 3c          	mov    QWORD PTR [r12+r15*1],rdi
    3d25:	ff d2                	call   rdx
    3d27:	48 ba 90 a4 ff ff ff 	movabs rdx,0xffffffffffffa490
    3d2e:	ff ff ff 
    3d31:	31 c0                	xor    eax,eax
    3d33:	4c 01 fa             	add    rdx,r15
    3d36:	ff d2                	call   rdx
    3d38:	4d 8d 04 1f          	lea    r8,[r15+rbx*1]
    3d3c:	4c 89 c7             	mov    rdi,r8
    3d3f:	4c 89 44 24 08       	mov    QWORD PTR [rsp+0x8],r8
    3d44:	41 ff d6             	call   r14
    3d47:	41 0f b6 44 1f 04    	movzx  eax,BYTE PTR [r15+rbx*1+0x4]
    3d4d:	41 0f b6 7c 1f 05    	movzx  edi,BYTE PTR [r15+rbx*1+0x5]
    3d53:	41 0f b6 4c 1f 06    	movzx  ecx,BYTE PTR [r15+rbx*1+0x6]
    3d59:	01 c7                	add    edi,eax
    3d5b:	41 0f b6 44 1f 03    	movzx  eax,BYTE PTR [r15+rbx*1+0x3]
    3d61:	d0 e9                	shr    cl,1
    3d63:	01 c7                	add    edi,eax
    3d65:	48 b8 40 c9 ff ff ff 	movabs rax,0xffffffffffffc940
    3d6c:	ff ff ff 
    3d6f:	d3 e7                	shl    edi,cl
    3d71:	4c 01 f8             	add    rax,r15
    3d74:	48 b9 38 29 00 00 00 	movabs rcx,0x2938
    3d7b:	00 00 00 
    3d7e:	48 89 0c 24          	mov    QWORD PTR [rsp],rcx
    3d82:	41 89 3c 0f          	mov    DWORD PTR [r15+rcx*1],edi
    3d86:	ff d0                	call   rax
    3d88:	48 b8 f0 d4 ff ff ff 	movabs rax,0xffffffffffffd4f0
    3d8f:	ff ff ff 
    3d92:	31 f6                	xor    esi,esi
    3d94:	31 ff                	xor    edi,edi
    3d96:	4c 01 f8             	add    rax,r15
    3d99:	ff d0                	call   rax
    3d9b:	48 ba 90 ca ff ff ff 	movabs rdx,0xffffffffffffca90
    3da2:	ff ff ff 
    3da5:	31 c0                	xor    eax,eax
    3da7:	4c 01 fa             	add    rdx,r15
    3daa:	ff d2                	call   rdx
    3dac:	48 ba a0 7e ff ff ff 	movabs rdx,0xffffffffffff7ea0
    3db3:	ff ff ff 
    3db6:	31 c0                	xor    eax,eax
    3db8:	4c 01 fa             	add    rdx,r15
    3dbb:	ff d2                	call   rdx
    3dbd:	48 ba d0 8d ff ff ff 	movabs rdx,0xffffffffffff8dd0
    3dc4:	ff ff ff 
    3dc7:	31 c0                	xor    eax,eax
    3dc9:	4c 01 fa             	add    rdx,r15
    3dcc:	ff d2                	call   rdx
    3dce:	48 ba 70 cf ff ff ff 	movabs rdx,0xffffffffffffcf70
    3dd5:	ff ff ff 
    3dd8:	31 c0                	xor    eax,eax
    3dda:	4c 01 fa             	add    rdx,r15
    3ddd:	ff d2                	call   rdx
    3ddf:	48 ba a0 b2 ff ff ff 	movabs rdx,0xffffffffffffb2a0
    3de6:	ff ff ff 
    3de9:	31 c0                	xor    eax,eax
    3deb:	4c 01 fa             	add    rdx,r15
    3dee:	ff d2                	call   rdx
    3df0:	48 ba 80 b4 ff ff ff 	movabs rdx,0xffffffffffffb480
    3df7:	ff ff ff 
    3dfa:	31 c0                	xor    eax,eax
    3dfc:	4c 01 fa             	add    rdx,r15
    3dff:	ff d2                	call   rdx
    3e01:	48 ba b0 c3 ff ff ff 	movabs rdx,0xffffffffffffc3b0
    3e08:	ff ff ff 
    3e0b:	31 c0                	xor    eax,eax
    3e0d:	4c 01 fa             	add    rdx,r15
    3e10:	ff d2                	call   rdx
    3e12:	48 ba 50 aa ff ff ff 	movabs rdx,0xffffffffffffaa50
    3e19:	ff ff ff 
    3e1c:	31 c0                	xor    eax,eax
    3e1e:	4c 01 fa             	add    rdx,r15
    3e21:	ff d2                	call   rdx
    3e23:	48 b8 a6 e9 ff ff ff 	movabs rax,0xffffffffffffe9a6
    3e2a:	ff ff ff 
    3e2d:	49 8d 3c 07          	lea    rdi,[r15+rax*1]
    3e31:	31 c0                	xor    eax,eax
    3e33:	41 ff d5             	call   r13
    3e36:	48 b8 e8 ff ff ff ff 	movabs rax,0xffffffffffffffe8
    3e3d:	ff ff ff 
    3e40:	49 8b 14 07          	mov    rdx,QWORD PTR [r15+rax*1]
    3e44:	48 b8 f0 ff ff ff ff 	movabs rax,0xfffffffffffffff0
    3e4b:	ff ff ff 
    3e4e:	49 8b 34 07          	mov    rsi,QWORD PTR [r15+rax*1]
    3e52:	48 b8 30 ea ff ff ff 	movabs rax,0xffffffffffffea30
    3e59:	ff ff ff 
    3e5c:	49 8d 3c 07          	lea    rdi,[r15+rax*1]
    3e60:	31 c0                	xor    eax,eax
    3e62:	41 ff d5             	call   r13
    3e65:	48 8b 0c 24          	mov    rcx,QWORD PTR [rsp]
    3e69:	48 b8 bf e9 ff ff ff 	movabs rax,0xffffffffffffe9bf
    3e70:	ff ff ff 
    3e73:	49 8d 3c 07          	lea    rdi,[r15+rax*1]
    3e77:	31 c0                	xor    eax,eax
    3e79:	41 8b 34 0f          	mov    esi,DWORD PTR [r15+rcx*1]
    3e7d:	41 ff d5             	call   r13
    3e80:	41 0f b7 0c 1f       	movzx  ecx,WORD PTR [r15+rbx*1]
    3e85:	41 0f b6 54 1f 02    	movzx  edx,BYTE PTR [r15+rbx*1+0x2]
    3e8b:	48 b8 58 ea ff ff ff 	movabs rax,0xffffffffffffea58
    3e92:	ff ff ff 
    3e95:	41 0f b6 74 1f 03    	movzx  esi,BYTE PTR [r15+rbx*1+0x3]
    3e9b:	49 8d 3c 07          	lea    rdi,[r15+rax*1]
    3e9f:	31 c0                	xor    eax,eax
    3ea1:	41 ff d5             	call   r13
    3ea4:	48 b8 d1 e9 ff ff ff 	movabs rax,0xffffffffffffe9d1
    3eab:	ff ff ff 
    3eae:	49 8d 14 07          	lea    rdx,[r15+rax*1]
    3eb2:	48 b8 d8 e9 ff ff ff 	movabs rax,0xffffffffffffe9d8
    3eb9:	ff ff ff 
    3ebc:	49 8d 34 07          	lea    rsi,[r15+rax*1]
    3ec0:	48 b8 88 ea ff ff ff 	movabs rax,0xffffffffffffea88
    3ec7:	ff ff ff 
    3eca:	49 8d 3c 07          	lea    rdi,[r15+rax*1]
    3ece:	31 c0                	xor    eax,eax
    3ed0:	41 ff d5             	call   r13
    3ed3:	48 ba c0 ab ff ff ff 	movabs rdx,0xffffffffffffabc0
    3eda:	ff ff ff 
    3edd:	31 c0                	xor    eax,eax
    3edf:	4c 01 fa             	add    rdx,r15
    3ee2:	ff d2                	call   rdx
    3ee4:	48 b8 f1 e9 ff ff ff 	movabs rax,0xffffffffffffe9f1
    3eeb:	ff ff ff 
    3eee:	49 8d 34 07          	lea    rsi,[r15+rax*1]
    3ef2:	48 b8 b8 ea ff ff ff 	movabs rax,0xffffffffffffeab8
    3ef9:	ff ff ff 
    3efc:	49 8d 3c 07          	lea    rdi,[r15+rax*1]
    3f00:	31 c0                	xor    eax,eax
    3f02:	41 ff d5             	call   r13
    3f05:	48 b8 02 ea ff ff ff 	movabs rax,0xffffffffffffea02
    3f0c:	ff ff ff 
    3f0f:	49 8d 14 07          	lea    rdx,[r15+rax*1]
    3f13:	48 b8 09 ea ff ff ff 	movabs rax,0xffffffffffffea09
    3f1a:	ff ff ff 
    3f1d:	49 8d 34 07          	lea    rsi,[r15+rax*1]
    3f21:	48 b8 e8 eb ff ff ff 	movabs rax,0xffffffffffffebe8
    3f28:	ff ff ff 
    3f2b:	49 8d 3c 07          	lea    rdi,[r15+rax*1]
    3f2f:	31 c0                	xor    eax,eax
    3f31:	41 ff d5             	call   r13
    3f34:	48 8b 7c 24 08       	mov    rdi,QWORD PTR [rsp+0x8]
    3f39:	41 ff d6             	call   r14
    3f3c:	41 0f b7 04 1f       	movzx  eax,WORD PTR [r15+rbx*1]
    3f41:	48 83 ec 08          	sub    rsp,0x8
    3f45:	41 0f b6 54 1f 05    	movzx  edx,BYTE PTR [r15+rbx*1+0x5]
    3f4b:	45 0f b6 4c 1f 02    	movzx  r9d,BYTE PTR [r15+rbx*1+0x2]
    3f51:	45 0f b6 44 1f 03    	movzx  r8d,BYTE PTR [r15+rbx*1+0x3]
    3f57:	41 0f b6 4c 1f 06    	movzx  ecx,BYTE PTR [r15+rbx*1+0x6]
    3f5d:	41 0f b6 74 1f 04    	movzx  esi,BYTE PTR [r15+rbx*1+0x4]
    3f63:	50                   	push   rax
    3f64:	48 b8 08 ec ff ff ff 	movabs rax,0xffffffffffffec08
    3f6b:	ff ff ff 
    3f6e:	49 8d 3c 07          	lea    rdi,[r15+rax*1]
    3f72:	31 c0                	xor    eax,eax
    3f74:	48 bb 60 dd ff ff ff 	movabs rbx,0xffffffffffffdd60
    3f7b:	ff ff ff 
    3f7e:	41 ff d5             	call   r13
    3f81:	58                   	pop    rax
    3f82:	4c 01 fb             	add    rbx,r15
    3f85:	5a                   	pop    rdx
    3f86:	66 2e 0f 1f 84 00 00 	cs nop WORD PTR [rax+rax*1+0x0]
    3f8d:	00 00 00 
    3f90:	ff d3                	call   rbx
    3f92:	85 c0                	test   eax,eax
    3f94:	74 fa                	je     3f90 <start_kernel+0x2d0>
    3f96:	48 b8 10 ea ff ff ff 	movabs rax,0xffffffffffffea10
    3f9d:	ff ff ff 
    3fa0:	4c 01 fd             	add    rbp,r15
    3fa3:	48 bb e0 d0 ff ff ff 	movabs rbx,0xffffffffffffd0e0
    3faa:	ff ff ff 
    3fad:	49 8d 3c 07          	lea    rdi,[r15+rax*1]
    3fb1:	31 c0                	xor    eax,eax
    3fb3:	4c 01 fb             	add    rbx,r15
    3fb6:	ff d5                	call   rbp
    3fb8:	bf e8 03 00 00       	mov    edi,0x3e8
    3fbd:	ff d3                	call   rbx
    3fbf:	48 b8 24 ea ff ff ff 	movabs rax,0xffffffffffffea24
    3fc6:	ff ff ff 
    3fc9:	49 8d 3c 07          	lea    rdi,[r15+rax*1]
    3fcd:	31 c0                	xor    eax,eax
    3fcf:	ff d5                	call   rbp
    3fd1:	bf e8 03 00 00       	mov    edi,0x3e8
    3fd6:	ff d3                	call   rbx
    3fd8:	4b 8b 04 3c          	mov    rax,QWORD PTR [r12+r15*1]
    3fdc:	48 83 ec 20          	sub    rsp,0x20
    3fe0:	45 31 c9             	xor    r9d,r9d
    3fe3:	45 31 c0             	xor    r8d,r8d
    3fe6:	31 d2                	xor    edx,edx
    3fe8:	31 c9                	xor    ecx,ecx
    3fea:	ff 50 40             	call   QWORD PTR [rax+0x40]
    3fed:	48 83 c4 38          	add    rsp,0x38
    3ff1:	5b                   	pop    rbx
    3ff2:	5d                   	pop    rbp
    3ff3:	41 5c                	pop    r12
    3ff5:	41 5d                	pop    r13
    3ff7:	41 5e                	pop    r14
    3ff9:	41 5f                	pop    r15
    3ffb:	c3                   	ret
    3ffc:	0f 1f 40 00          	nop    DWORD PTR [rax+0x0]

0000000000004000 <cos>:
    4000:	48 8d 05 f9 ff ff ff 	lea    rax,[rip+0xfffffffffffffff9]        # 4000 <cos>
    4007:	49 bb 90 57 00 00 00 	movabs r11,0x5790
    400e:	00 00 00 
    4011:	0f 28 c8             	movaps xmm1,xmm0
    4014:	48 ba 40 ec ff ff ff 	movabs rdx,0xffffffffffffec40
    401b:	ff ff ff 
    401e:	4c 01 d8             	add    rax,r11
    4021:	f3 0f 5a c0          	cvtss2sd xmm0,xmm0
    4025:	f2 0f 10 14 10       	movsd  xmm2,QWORD PTR [rax+rdx*1]
    402a:	66 0f 2f c2          	comisd xmm0,xmm2
    402e:	0f 86 8c 00 00 00    	jbe    40c0 <cos+0xc0>
    4034:	f2 0f 5c c2          	subsd  xmm0,xmm2
    4038:	48 ba 38 ec ff ff ff 	movabs rdx,0xffffffffffffec38
    403f:	ff ff ff 
    4042:	66 0f ef c9          	pxor   xmm1,xmm1
    4046:	f2 0f 10 24 10       	movsd  xmm4,QWORD PTR [rax+rdx*1]
    404b:	48 ba 30 ec ff ff ff 	movabs rdx,0xffffffffffffec30
    4052:	ff ff ff 
    4055:	f2 0f 5a c8          	cvtsd2ss xmm1,xmm0
    4059:	f3 0f 59 c9          	mulss  xmm1,xmm1
    405d:	48 b9 48 ec ff ff ff 	movabs rcx,0xffffffffffffec48
    4064:	ff ff ff 
    4067:	f2 0f 10 14 02       	movsd  xmm2,QWORD PTR [rdx+rax*1]
    406c:	48 ba 50 ec ff ff ff 	movabs rdx,0xffffffffffffec50
    4073:	ff ff ff 
    4076:	f2 0f 10 2c 01       	movsd  xmm5,QWORD PTR [rcx+rax*1]
    407b:	f3 0f 5a c9          	cvtss2sd xmm1,xmm1
    407f:	f2 0f 59 e9          	mulsd  xmm5,xmm1
    4083:	66 0f 28 d9          	movapd xmm3,xmm1
    4087:	f2 0f 59 d9          	mulsd  xmm3,xmm1
    408b:	f2 0f 5c d5          	subsd  xmm2,xmm5
    408f:	66 0f 28 c2          	movapd xmm0,xmm2
    4093:	66 0f 28 d3          	movapd xmm2,xmm3
    4097:	f2 0f 59 d9          	mulsd  xmm3,xmm1
    409b:	f2 0f 5e 14 02       	divsd  xmm2,QWORD PTR [rdx+rax*1]
    40a0:	f2 0f 58 c2          	addsd  xmm0,xmm2
    40a4:	48 ba 58 ec ff ff ff 	movabs rdx,0xffffffffffffec58
    40ab:	ff ff ff 
    40ae:	f2 0f 5e 1c 02       	divsd  xmm3,QWORD PTR [rdx+rax*1]
    40b3:	f2 0f 5c c3          	subsd  xmm0,xmm3
    40b7:	f2 0f 59 c4          	mulsd  xmm0,xmm4
    40bb:	f2 0f 5a c0          	cvtsd2ss xmm0,xmm0
    40bf:	c3                   	ret
    40c0:	48 ba 30 ec ff ff ff 	movabs rdx,0xffffffffffffec30
    40c7:	ff ff ff 
    40ca:	f2 0f 10 24 02       	movsd  xmm4,QWORD PTR [rdx+rax*1]
    40cf:	eb 88                	jmp    4059 <cos+0x59>
    40d1:	66 66 2e 0f 1f 84 00 	data16 cs nop WORD PTR [rax+rax*1+0x0]
    40d8:	00 00 00 00 
    40dc:	0f 1f 40 00          	nop    DWORD PTR [rax+0x0]

00000000000040e0 <sin>:
    40e0:	48 8d 05 f9 ff ff ff 	lea    rax,[rip+0xfffffffffffffff9]        # 40e0 <sin>
    40e7:	49 bb b0 56 00 00 00 	movabs r11,0x56b0
    40ee:	00 00 00 
    40f1:	66 0f ef c9          	pxor   xmm1,xmm1
    40f5:	48 ba 60 ec ff ff ff 	movabs rdx,0xffffffffffffec60
    40fc:	ff ff ff 
    40ff:	4c 01 d8             	add    rax,r11
    4102:	f3 0f 5a c8          	cvtss2sd xmm1,xmm0
    4106:	66 0f ef c0          	pxor   xmm0,xmm0
    410a:	f2 0f 5c 0c 02       	subsd  xmm1,QWORD PTR [rdx+rax*1]
    410f:	48 ba 40 ec ff ff ff 	movabs rdx,0xffffffffffffec40
    4116:	ff ff ff 
    4119:	f2 0f 10 14 10       	movsd  xmm2,QWORD PTR [rax+rdx*1]
    411e:	f2 0f 5a c9          	cvtsd2ss xmm1,xmm1
    4122:	f3 0f 5a c1          	cvtss2sd xmm0,xmm1
    4126:	66 0f 2f c2          	comisd xmm0,xmm2
    412a:	0f 86 90 00 00 00    	jbe    41c0 <sin+0xe0>
    4130:	f2 0f 5c c2          	subsd  xmm0,xmm2
    4134:	48 ba 38 ec ff ff ff 	movabs rdx,0xffffffffffffec38
    413b:	ff ff ff 
    413e:	66 0f ef c9          	pxor   xmm1,xmm1
    4142:	f2 0f 10 24 10       	movsd  xmm4,QWORD PTR [rax+rdx*1]
    4147:	48 ba 30 ec ff ff ff 	movabs rdx,0xffffffffffffec30
    414e:	ff ff ff 
    4151:	f2 0f 5a c8          	cvtsd2ss xmm1,xmm0
    4155:	f3 0f 59 c9          	mulss  xmm1,xmm1
    4159:	48 b9 48 ec ff ff ff 	movabs rcx,0xffffffffffffec48
    4160:	ff ff ff 
    4163:	f2 0f 10 14 02       	movsd  xmm2,QWORD PTR [rdx+rax*1]
    4168:	48 ba 50 ec ff ff ff 	movabs rdx,0xffffffffffffec50
    416f:	ff ff ff 
    4172:	f2 0f 10 2c 01       	movsd  xmm5,QWORD PTR [rcx+rax*1]
    4177:	f3 0f 5a c9          	cvtss2sd xmm1,xmm1
    417b:	f2 0f 59 e9          	mulsd  xmm5,xmm1
    417f:	66 0f 28 d9          	movapd xmm3,xmm1
    4183:	f2 0f 59 d9          	mulsd  xmm3,xmm1
    4187:	f2 0f 5c d5          	subsd  xmm2,xmm5
    418b:	f2 0f 59 cb          	mulsd  xmm1,xmm3
    418f:	66 0f 28 c2          	movapd xmm0,xmm2
    4193:	66 0f 28 d3          	movapd xmm2,xmm3
    4197:	f2 0f 5e 14 02       	divsd  xmm2,QWORD PTR [rdx+rax*1]
    419c:	f2 0f 58 c2          	addsd  xmm0,xmm2
    41a0:	48 ba 58 ec ff ff ff 	movabs rdx,0xffffffffffffec58
    41a7:	ff ff ff 
    41aa:	f2 0f 5e 0c 02       	divsd  xmm1,QWORD PTR [rdx+rax*1]
    41af:	f2 0f 5c c1          	subsd  xmm0,xmm1
    41b3:	f2 0f 59 c4          	mulsd  xmm0,xmm4
    41b7:	f2 0f 5a c0          	cvtsd2ss xmm0,xmm0
    41bb:	c3                   	ret
    41bc:	0f 1f 40 00          	nop    DWORD PTR [rax+0x0]
    41c0:	48 ba 30 ec ff ff ff 	movabs rdx,0xffffffffffffec30
    41c7:	ff ff ff 
    41ca:	f2 0f 10 24 02       	movsd  xmm4,QWORD PTR [rdx+rax*1]
    41cf:	eb 84                	jmp    4155 <sin+0x75>
    41d1:	66 2e 0f 1f 84 00 00 	cs nop WORD PTR [rax+rax*1+0x0]
    41d8:	00 00 00 
    41db:	0f 1f 44 00 00       	nop    DWORD PTR [rax+rax*1+0x0]

00000000000041e0 <mem_setup>:
    41e0:	41 57                	push   r15
    41e2:	49 bb b0 55 00 00 00 	movabs r11,0x55b0
    41e9:	00 00 00 
    41ec:	4c 8d 3d ed ff ff ff 	lea    r15,[rip+0xffffffffffffffed]        # 41e0 <mem_setup>
    41f3:	48 be c1 c1 ff ff ff 	movabs rsi,0xffffffffffffc1c1
    41fa:	ff ff ff 
    41fd:	4d 01 df             	add    r15,r11
    4200:	48 b8 68 ec ff ff ff 	movabs rax,0xffffffffffffec68
    4207:	ff ff ff 
    420a:	4a 8d 14 3e          	lea    rdx,[rsi+r15*1]
    420e:	49 8d 3c 07          	lea    rdi,[r15+rax*1]
    4212:	31 c0                	xor    eax,eax
    4214:	41 56                	push   r14
    4216:	41 55                	push   r13
    4218:	41 54                	push   r12
    421a:	49 bc 50 29 00 00 00 	movabs r12,0x2950
    4221:	00 00 00 
    4224:	55                   	push   rbp
    4225:	48 bd 78 2a 00 00 00 	movabs rbp,0x2a78
    422c:	00 00 00 
    422f:	53                   	push   rbx
    4230:	48 bb 70 2a 00 00 00 	movabs rbx,0x2a70
    4237:	00 00 00 
    423a:	48 83 ec 18          	sub    rsp,0x18
    423e:	4a c7 44 3d 00 00 00 	mov    QWORD PTR [rbp+r15*1+0x0],0x0
    4245:	00 00 
    4247:	48 89 74 24 08       	mov    QWORD PTR [rsp+0x8],rsi
    424c:	4a c7 04 3b 00 00 00 	mov    QWORD PTR [rbx+r15*1],0x0
    4253:	00 
    4254:	4b c7 04 3c 00 00 00 	mov    QWORD PTR [r12+r15*1],0x0
    425b:	00 
    425c:	ff d2                	call   rdx
    425e:	48 b8 d0 ff ff ff ff 	movabs rax,0xffffffffffffffd0
    4265:	ff ff ff 
    4268:	31 d2                	xor    edx,edx
    426a:	49 8b 04 07          	mov    rax,QWORD PTR [r15+rax*1]
    426e:	4c 8b 18             	mov    r11,QWORD PTR [rax]
    4271:	49 8b 73 20          	mov    rsi,QWORD PTR [r11+0x20]
    4275:	4d 8b 4b 28          	mov    r9,QWORD PTR [r11+0x28]
    4279:	49 8b 4b 18          	mov    rcx,QWORD PTR [r11+0x18]
    427d:	48 89 f0             	mov    rax,rsi
    4280:	49 f7 f1             	div    r9
    4283:	4c 39 ce             	cmp    rsi,r9
    4286:	72 54                	jb     42dc <mem_setup+0xfc>
    4288:	49 bd 70 29 00 00 00 	movabs r13,0x2970
    428f:	00 00 00 
    4292:	4a 8b 3c 3b          	mov    rdi,QWORD PTR [rbx+r15*1]
    4296:	4e 8b 44 3d 00       	mov    r8,QWORD PTR [rbp+r15*1+0x0]
    429b:	45 31 f6             	xor    r14d,r14d
    429e:	4f 8b 14 3c          	mov    r10,QWORD PTR [r12+r15*1]
    42a2:	31 f6                	xor    esi,esi
    42a4:	4d 01 fd             	add    r13,r15
    42a7:	66 0f 1f 84 00 00 00 	nop    WORD PTR [rax+rax*1+0x0]
    42ae:	00 00 
    42b0:	48 8b 51 18          	mov    rdx,QWORD PTR [rcx+0x18]
    42b4:	48 01 d7             	add    rdi,rdx
    42b7:	48 c1 e2 0c          	shl    rdx,0xc
    42bb:	49 01 d0             	add    r8,rdx
    42be:	83 39 07             	cmp    DWORD PTR [rcx],0x7
    42c1:	74 65                	je     4328 <mem_setup+0x148>
    42c3:	48 ff c6             	inc    rsi
    42c6:	4c 01 c9             	add    rcx,r9
    42c9:	48 39 c6             	cmp    rsi,rax
    42cc:	72 e2                	jb     42b0 <mem_setup+0xd0>
    42ce:	4e 89 44 3d 00       	mov    QWORD PTR [rbp+r15*1+0x0],r8
    42d3:	4a 89 3c 3b          	mov    QWORD PTR [rbx+r15*1],rdi
    42d7:	45 84 f6             	test   r14b,r14b
    42da:	75 40                	jne    431c <mem_setup+0x13c>
    42dc:	48 8b 54 24 08       	mov    rdx,QWORD PTR [rsp+0x8]
    42e1:	48 b8 84 e3 ff ff ff 	movabs rax,0xffffffffffffe384
    42e8:	ff ff ff 
    42eb:	49 8d 3c 07          	lea    rdi,[r15+rax*1]
    42ef:	31 c0                	xor    eax,eax
    42f1:	4c 01 fa             	add    rdx,r15
    42f4:	ff d2                	call   rdx
    42f6:	48 83 c4 18          	add    rsp,0x18
    42fa:	31 c0                	xor    eax,eax
    42fc:	5b                   	pop    rbx
    42fd:	5d                   	pop    rbp
    42fe:	41 5c                	pop    r12
    4300:	41 5d                	pop    r13
    4302:	41 5e                	pop    r14
    4304:	41 5f                	pop    r15
    4306:	c3                   	ret
    4307:	66 0f 1f 84 00 00 00 	nop    WORD PTR [rax+rax*1+0x0]
    430e:	00 00 
    4310:	4e 89 44 3d 00       	mov    QWORD PTR [rbp+r15*1+0x0],r8
    4315:	49 89 d2             	mov    r10,rdx
    4318:	4a 89 3c 3b          	mov    QWORD PTR [rbx+r15*1],rdi
    431c:	4f 89 14 3c          	mov    QWORD PTR [r12+r15*1],r10
    4320:	eb ba                	jmp    42dc <mem_setup+0xfc>
    4322:	66 0f 1f 44 00 00    	nop    WORD PTR [rax+rax*1+0x0]
    4328:	4b 89 74 d5 00       	mov    QWORD PTR [r13+r10*8+0x0],rsi
    432d:	48 ff c6             	inc    rsi
    4330:	49 8d 52 01          	lea    rdx,[r10+0x1]
    4334:	4d 8b 4b 28          	mov    r9,QWORD PTR [r11+0x28]
    4338:	4c 01 c9             	add    rcx,r9
    433b:	48 39 c6             	cmp    rsi,rax
    433e:	73 d0                	jae    4310 <mem_setup+0x130>
    4340:	49 89 d2             	mov    r10,rdx
    4343:	41 be 01 00 00 00    	mov    r14d,0x1
    4349:	e9 62 ff ff ff       	jmp    42b0 <mem_setup+0xd0>
    434e:	66 90                	xchg   ax,ax

0000000000004350 <mem_review>:
    4350:	41 57                	push   r15
    4352:	49 bb 40 54 00 00 00 	movabs r11,0x5440
    4359:	00 00 00 
    435c:	4c 8d 3d ed ff ff ff 	lea    r15,[rip+0xffffffffffffffed]        # 4350 <mem_review>
    4363:	31 d2                	xor    edx,edx
    4365:	4d 01 df             	add    r15,r11
    4368:	41 56                	push   r14
    436a:	41 55                	push   r13
    436c:	41 54                	push   r12
    436e:	49 bc d0 ff ff ff ff 	movabs r12,0xffffffffffffffd0
    4375:	ff ff ff 
    4378:	55                   	push   rbp
    4379:	53                   	push   rbx
    437a:	48 83 ec 18          	sub    rsp,0x18
    437e:	4b 8b 04 3c          	mov    rax,QWORD PTR [r12+r15*1]
    4382:	48 8b 00             	mov    rax,QWORD PTR [rax]
    4385:	4c 8b 70 20          	mov    r14,QWORD PTR [rax+0x20]
    4389:	4c 8b 68 28          	mov    r13,QWORD PTR [rax+0x28]
    438d:	48 8b 58 18          	mov    rbx,QWORD PTR [rax+0x18]
    4391:	4c 89 f0             	mov    rax,r14
    4394:	49 f7 f5             	div    r13
    4397:	48 ba c1 c1 ff ff ff 	movabs rdx,0xffffffffffffc1c1
    439e:	ff ff ff 
    43a1:	48 89 14 24          	mov    QWORD PTR [rsp],rdx
    43a5:	4c 01 fa             	add    rdx,r15
    43a8:	48 89 c5             	mov    rbp,rax
    43ab:	48 89 c6             	mov    rsi,rax
    43ae:	48 b8 80 ec ff ff ff 	movabs rax,0xffffffffffffec80
    43b5:	ff ff ff 
    43b8:	49 8d 3c 07          	lea    rdi,[r15+rax*1]
    43bc:	31 c0                	xor    eax,eax
    43be:	ff d2                	call   rdx
    43c0:	4d 39 ee             	cmp    r14,r13
    43c3:	72 7b                	jb     4440 <mem_review+0xf0>
    43c5:	48 b8 f0 f7 ff ff ff 	movabs rax,0xfffffffffffff7f0
    43cc:	ff ff ff 
    43cf:	45 31 ed             	xor    r13d,r13d
    43d2:	4d 8d 34 07          	lea    r14,[r15+rax*1]
    43d6:	48 b8 b8 ec ff ff ff 	movabs rax,0xffffffffffffecb8
    43dd:	ff ff ff 
    43e0:	4c 01 f8             	add    rax,r15
    43e3:	48 89 44 24 08       	mov    QWORD PTR [rsp+0x8],rax
    43e8:	eb 19                	jmp    4403 <mem_review+0xb3>
    43ea:	66 0f 1f 44 00 00    	nop    WORD PTR [rax+rax*1+0x0]
    43f0:	4b 8b 04 3c          	mov    rax,QWORD PTR [r12+r15*1]
    43f4:	49 ff c5             	inc    r13
    43f7:	48 8b 00             	mov    rax,QWORD PTR [rax]
    43fa:	48 03 58 28          	add    rbx,QWORD PTR [rax+0x28]
    43fe:	49 39 ed             	cmp    r13,rbp
    4401:	73 3d                	jae    4440 <mem_review+0xf0>
    4403:	83 3b 07             	cmp    DWORD PTR [rbx],0x7
    4406:	75 e8                	jne    43f0 <mem_review+0xa0>
    4408:	48 8b 4b 18          	mov    rcx,QWORD PTR [rbx+0x18]
    440c:	4c 8b 1c 24          	mov    r11,QWORD PTR [rsp]
    4410:	41 b9 2a 00 00 00    	mov    r9d,0x2a
    4416:	4c 89 f2             	mov    rdx,r14
    4419:	4c 8b 43 08          	mov    r8,QWORD PTR [rbx+0x8]
    441d:	48 8b 7c 24 08       	mov    rdi,QWORD PTR [rsp+0x8]
    4422:	4c 89 ee             	mov    rsi,r13
    4425:	31 c0                	xor    eax,eax
    4427:	48 c1 e1 0c          	shl    rcx,0xc
    442b:	4f 8d 14 3b          	lea    r10,[r11+r15*1]
    442f:	48 c1 e9 0a          	shr    rcx,0xa
    4433:	41 ff d2             	call   r10
    4436:	eb b8                	jmp    43f0 <mem_review+0xa0>
    4438:	0f 1f 84 00 00 00 00 	nop    DWORD PTR [rax+rax*1+0x0]
    443f:	00 
    4440:	48 b8 70 2a 00 00 00 	movabs rax,0x2a70
    4447:	00 00 00 
    444a:	48 8b 0c 24          	mov    rcx,QWORD PTR [rsp]
    444e:	49 8b 14 07          	mov    rdx,QWORD PTR [r15+rax*1]
    4452:	48 b8 78 2a 00 00 00 	movabs rax,0x2a78
    4459:	00 00 00 
    445c:	49 8b 34 07          	mov    rsi,QWORD PTR [r15+rax*1]
    4460:	48 83 c4 18          	add    rsp,0x18
    4464:	48 b8 e8 ec ff ff ff 	movabs rax,0xffffffffffffece8
    446b:	ff ff ff 
    446e:	4c 01 f9             	add    rcx,r15
    4471:	5b                   	pop    rbx
    4472:	49 8d 3c 07          	lea    rdi,[r15+rax*1]
    4476:	31 c0                	xor    eax,eax
    4478:	5d                   	pop    rbp
    4479:	48 c1 ee 14          	shr    rsi,0x14
    447d:	41 5c                	pop    r12
    447f:	41 5d                	pop    r13
    4481:	41 5e                	pop    r14
    4483:	41 5f                	pop    r15
    4485:	ff e1                	jmp    rcx
    4487:	66 0f 1f 84 00 00 00 	nop    WORD PTR [rax+rax*1+0x0]
    448e:	00 00 

0000000000004490 <mem_allocate>:
    4490:	48 8d 05 f9 ff ff ff 	lea    rax,[rip+0xfffffffffffffff9]        # 4490 <mem_allocate>
    4497:	49 bb 00 53 00 00 00 	movabs r11,0x5300
    449e:	00 00 00 
    44a1:	48 ba 50 29 00 00 00 	movabs rdx,0x2950
    44a8:	00 00 00 
    44ab:	4c 01 d8             	add    rax,r11
    44ae:	4c 8b 04 10          	mov    r8,QWORD PTR [rax+rdx*1]
    44b2:	4d 85 c0             	test   r8,r8
    44b5:	74 59                	je     4510 <mem_allocate+0x80>
    44b7:	48 ba d0 ff ff ff ff 	movabs rdx,0xffffffffffffffd0
    44be:	ff ff ff 
    44c1:	48 be 70 29 00 00 00 	movabs rsi,0x2970
    44c8:	00 00 00 
    44cb:	31 c9                	xor    ecx,ecx
    44cd:	48 8b 14 10          	mov    rdx,QWORD PTR [rax+rdx*1]
    44d1:	48 01 c6             	add    rsi,rax
    44d4:	48 8b 12             	mov    rdx,QWORD PTR [rdx]
    44d7:	4c 8b 52 18          	mov    r10,QWORD PTR [rdx+0x18]
    44db:	4c 8b 4a 28          	mov    r9,QWORD PTR [rdx+0x28]
    44df:	eb 0f                	jmp    44f0 <mem_allocate+0x60>
    44e1:	0f 1f 80 00 00 00 00 	nop    DWORD PTR [rax+0x0]
    44e8:	48 ff c1             	inc    rcx
    44eb:	4c 39 c1             	cmp    rcx,r8
    44ee:	74 20                	je     4510 <mem_allocate+0x80>
    44f0:	48 8b 04 ce          	mov    rax,QWORD PTR [rsi+rcx*8]
    44f4:	49 0f af c1          	imul   rax,r9
    44f8:	4c 01 d0             	add    rax,r10
    44fb:	48 8b 50 18          	mov    rdx,QWORD PTR [rax+0x18]
    44ff:	48 c1 e2 0c          	shl    rdx,0xc
    4503:	48 39 fa             	cmp    rdx,rdi
    4506:	72 e0                	jb     44e8 <mem_allocate+0x58>
    4508:	48 8b 40 08          	mov    rax,QWORD PTR [rax+0x8]
    450c:	c3                   	ret
    450d:	0f 1f 00             	nop    DWORD PTR [rax]
    4510:	31 c0                	xor    eax,eax
    4512:	c3                   	ret
    4513:	66 2e 0f 1f 84 00 00 	cs nop WORD PTR [rax+rax*1+0x0]
    451a:	00 00 00 
    451d:	0f 1f 00             	nop    DWORD PTR [rax]

0000000000004520 <memcpy>:
    4520:	48 89 f9             	mov    rcx,rdi
    4523:	48 8d 7a ff          	lea    rdi,[rdx-0x1]
    4527:	48 85 d2             	test   rdx,rdx
    452a:	74 34                	je     4560 <memcpy+0x40>
    452c:	48 83 ff 06          	cmp    rdi,0x6
    4530:	0f 86 0a 01 00 00    	jbe    4640 <memcpy+0x120>
    4536:	48 8d 46 01          	lea    rax,[rsi+0x1]
    453a:	49 89 c8             	mov    r8,rcx
    453d:	49 29 c0             	sub    r8,rax
    4540:	31 c0                	xor    eax,eax
    4542:	49 83 f8 0e          	cmp    r8,0xe
    4546:	77 20                	ja     4568 <memcpy+0x48>
    4548:	0f 1f 84 00 00 00 00 	nop    DWORD PTR [rax+rax*1+0x0]
    454f:	00 
    4550:	0f b6 3c 06          	movzx  edi,BYTE PTR [rsi+rax*1]
    4554:	40 88 3c 01          	mov    BYTE PTR [rcx+rax*1],dil
    4558:	48 ff c0             	inc    rax
    455b:	48 39 c2             	cmp    rdx,rax
    455e:	75 f0                	jne    4550 <memcpy+0x30>
    4560:	48 89 c8             	mov    rax,rcx
    4563:	c3                   	ret
    4564:	0f 1f 40 00          	nop    DWORD PTR [rax+0x0]
    4568:	48 83 ff 0e          	cmp    rdi,0xe
    456c:	0f 86 e9 00 00 00    	jbe    465b <memcpy+0x13b>
    4572:	49 89 d0             	mov    r8,rdx
    4575:	49 83 e0 f0          	and    r8,0xfffffffffffffff0
    4579:	0f 1f 80 00 00 00 00 	nop    DWORD PTR [rax+0x0]
    4580:	f3 0f 6f 04 06       	movdqu xmm0,XMMWORD PTR [rsi+rax*1]
    4585:	0f 11 04 01          	movups XMMWORD PTR [rcx+rax*1],xmm0
    4589:	48 83 c0 10          	add    rax,0x10
    458d:	49 39 c0             	cmp    r8,rax
    4590:	75 ee                	jne    4580 <memcpy+0x60>
    4592:	4a 8d 04 01          	lea    rax,[rcx+r8*1]
    4596:	4e 8d 0c 06          	lea    r9,[rsi+r8*1]
    459a:	4c 29 c7             	sub    rdi,r8
    459d:	4c 39 c2             	cmp    rdx,r8
    45a0:	74 be                	je     4560 <memcpy+0x40>
    45a2:	4c 29 c2             	sub    rdx,r8
    45a5:	4c 8d 52 ff          	lea    r10,[rdx-0x1]
    45a9:	49 83 fa 06          	cmp    r10,0x6
    45ad:	76 1d                	jbe    45cc <memcpy+0xac>
    45af:	4a 8b 34 06          	mov    rsi,QWORD PTR [rsi+r8*1]
    45b3:	4a 89 34 01          	mov    QWORD PTR [rcx+r8*1],rsi
    45b7:	48 89 d6             	mov    rsi,rdx
    45ba:	48 83 e6 f8          	and    rsi,0xfffffffffffffff8
    45be:	48 01 f0             	add    rax,rsi
    45c1:	49 01 f1             	add    r9,rsi
    45c4:	48 29 f7             	sub    rdi,rsi
    45c7:	83 e2 07             	and    edx,0x7
    45ca:	74 94                	je     4560 <memcpy+0x40>
    45cc:	41 0f b6 11          	movzx  edx,BYTE PTR [r9]
    45d0:	88 10                	mov    BYTE PTR [rax],dl
    45d2:	48 85 ff             	test   rdi,rdi
    45d5:	74 89                	je     4560 <memcpy+0x40>
    45d7:	41 0f b6 51 01       	movzx  edx,BYTE PTR [r9+0x1]
    45dc:	88 50 01             	mov    BYTE PTR [rax+0x1],dl
    45df:	48 83 ff 01          	cmp    rdi,0x1
    45e3:	0f 84 77 ff ff ff    	je     4560 <memcpy+0x40>
    45e9:	41 0f b6 51 02       	movzx  edx,BYTE PTR [r9+0x2]
    45ee:	88 50 02             	mov    BYTE PTR [rax+0x2],dl
    45f1:	48 83 ff 02          	cmp    rdi,0x2
    45f5:	0f 84 65 ff ff ff    	je     4560 <memcpy+0x40>
    45fb:	41 0f b6 51 03       	movzx  edx,BYTE PTR [r9+0x3]
    4600:	88 50 03             	mov    BYTE PTR [rax+0x3],dl
    4603:	48 83 ff 03          	cmp    rdi,0x3
    4607:	0f 84 53 ff ff ff    	je     4560 <memcpy+0x40>
    460d:	41 0f b6 51 04       	movzx  edx,BYTE PTR [r9+0x4]
    4612:	88 50 04             	mov    BYTE PTR [rax+0x4],dl
    4615:	48 83 ff 04          	cmp    rdi,0x4
    4619:	0f 84 41 ff ff ff    	je     4560 <memcpy+0x40>
    461f:	41 0f b6 51 05       	movzx  edx,BYTE PTR [r9+0x5]
    4624:	88 50 05             	mov    BYTE PTR [rax+0x5],dl
    4627:	48 83 ff 05          	cmp    rdi,0x5
    462b:	0f 84 2f ff ff ff    	je     4560 <memcpy+0x40>
    4631:	41 0f b6 51 06       	movzx  edx,BYTE PTR [r9+0x6]
    4636:	88 50 06             	mov    BYTE PTR [rax+0x6],dl
    4639:	48 89 c8             	mov    rax,rcx
    463c:	c3                   	ret
    463d:	0f 1f 00             	nop    DWORD PTR [rax]
    4640:	31 c0                	xor    eax,eax
    4642:	0f b6 3c 06          	movzx  edi,BYTE PTR [rsi+rax*1]
    4646:	40 88 3c 01          	mov    BYTE PTR [rcx+rax*1],dil
    464a:	48 ff c0             	inc    rax
    464d:	48 39 c2             	cmp    rdx,rax
    4650:	0f 85 fa fe ff ff    	jne    4550 <memcpy+0x30>
    4656:	e9 05 ff ff ff       	jmp    4560 <memcpy+0x40>
    465b:	49 89 f1             	mov    r9,rsi
    465e:	48 89 c8             	mov    rax,rcx
    4661:	45 31 c0             	xor    r8d,r8d
    4664:	e9 46 ff ff ff       	jmp    45af <memcpy+0x8f>
    4669:	0f 1f 80 00 00 00 00 	nop    DWORD PTR [rax+0x0]

0000000000004670 <memset>:
    4670:	49 89 f8             	mov    r8,rdi
    4673:	48 8d 7a ff          	lea    rdi,[rdx-0x1]
    4677:	48 85 d2             	test   rdx,rdx
    467a:	0f 84 ca 00 00 00    	je     474a <memset+0xda>
    4680:	48 83 ff 0e          	cmp    rdi,0xe
    4684:	0f 86 c4 00 00 00    	jbe    474e <memset+0xde>
    468a:	49 89 d1             	mov    r9,rdx
    468d:	66 0f 6e c6          	movd   xmm0,esi
    4691:	66 0f ef c9          	pxor   xmm1,xmm1
    4695:	4c 89 c1             	mov    rcx,r8
    4698:	49 83 e1 f0          	and    r9,0xfffffffffffffff0
    469c:	66 0f 38 00 c1       	pshufb xmm0,xmm1
    46a1:	4b 8d 04 08          	lea    rax,[r8+r9*1]
    46a5:	41 f6 c1 10          	test   r9b,0x10
    46a9:	74 15                	je     46c0 <memset+0x50>
    46ab:	49 8d 48 10          	lea    rcx,[r8+0x10]
    46af:	41 0f 11 00          	movups XMMWORD PTR [r8],xmm0
    46b3:	48 39 c8             	cmp    rax,rcx
    46b6:	74 18                	je     46d0 <memset+0x60>
    46b8:	0f 1f 84 00 00 00 00 	nop    DWORD PTR [rax+rax*1+0x0]
    46bf:	00 
    46c0:	0f 11 01             	movups XMMWORD PTR [rcx],xmm0
    46c3:	48 83 c1 20          	add    rcx,0x20
    46c7:	0f 11 41 f0          	movups XMMWORD PTR [rcx-0x10],xmm0
    46cb:	48 39 c8             	cmp    rax,rcx
    46ce:	75 f0                	jne    46c0 <memset+0x50>
    46d0:	4c 29 cf             	sub    rdi,r9
    46d3:	4c 39 ca             	cmp    rdx,r9
    46d6:	74 72                	je     474a <memset+0xda>
    46d8:	4c 29 ca             	sub    rdx,r9
    46db:	48 8d 4a ff          	lea    rcx,[rdx-0x1]
    46df:	48 83 f9 06          	cmp    rcx,0x6
    46e3:	76 27                	jbe    470c <memset+0x9c>
    46e5:	40 0f b6 ce          	movzx  ecx,sil
    46e9:	88 cd                	mov    ch,cl
    46eb:	66 0f 6e d1          	movd   xmm2,ecx
    46ef:	48 89 d1             	mov    rcx,rdx
    46f2:	48 83 e1 f8          	and    rcx,0xfffffffffffffff8
    46f6:	f2 0f 70 c2 00       	pshuflw xmm0,xmm2,0x0
    46fb:	48 01 c8             	add    rax,rcx
    46fe:	48 29 cf             	sub    rdi,rcx
    4701:	83 e2 07             	and    edx,0x7
    4704:	66 43 0f d6 04 08    	movq   QWORD PTR [r8+r9*1],xmm0
    470a:	74 3e                	je     474a <memset+0xda>
    470c:	40 88 30             	mov    BYTE PTR [rax],sil
    470f:	48 85 ff             	test   rdi,rdi
    4712:	74 36                	je     474a <memset+0xda>
    4714:	40 88 70 01          	mov    BYTE PTR [rax+0x1],sil
    4718:	48 83 ff 01          	cmp    rdi,0x1
    471c:	74 2c                	je     474a <memset+0xda>
    471e:	40 88 70 02          	mov    BYTE PTR [rax+0x2],sil
    4722:	48 83 ff 02          	cmp    rdi,0x2
    4726:	74 22                	je     474a <memset+0xda>
    4728:	40 88 70 03          	mov    BYTE PTR [rax+0x3],sil
    472c:	48 83 ff 03          	cmp    rdi,0x3
    4730:	74 18                	je     474a <memset+0xda>
    4732:	40 88 70 04          	mov    BYTE PTR [rax+0x4],sil
    4736:	48 83 ff 04          	cmp    rdi,0x4
    473a:	74 0e                	je     474a <memset+0xda>
    473c:	40 88 70 05          	mov    BYTE PTR [rax+0x5],sil
    4740:	48 83 ff 05          	cmp    rdi,0x5
    4744:	74 04                	je     474a <memset+0xda>
    4746:	40 88 70 06          	mov    BYTE PTR [rax+0x6],sil
    474a:	4c 89 c0             	mov    rax,r8
    474d:	c3                   	ret
    474e:	4c 89 c0             	mov    rax,r8
    4751:	45 31 c9             	xor    r9d,r9d
    4754:	eb 82                	jmp    46d8 <memset+0x68>
    4756:	66 2e 0f 1f 84 00 00 	cs nop WORD PTR [rax+rax*1+0x0]
    475d:	00 00 00 

0000000000004760 <memset32>:
    4760:	48 89 f8             	mov    rax,rdi
    4763:	4c 8d 4a ff          	lea    r9,[rdx-0x1]
    4767:	48 85 d2             	test   rdx,rdx
    476a:	74 53                	je     47bf <memset32+0x5f>
    476c:	49 83 f9 02          	cmp    r9,0x2
    4770:	76 4e                	jbe    47c0 <memset32+0x60>
    4772:	48 89 d7             	mov    rdi,rdx
    4775:	66 0f 6e ce          	movd   xmm1,esi
    4779:	31 c9                	xor    ecx,ecx
    477b:	48 c1 ef 02          	shr    rdi,0x2
    477f:	66 0f 70 c1 00       	pshufd xmm0,xmm1,0x0
    4784:	0f 1f 40 00          	nop    DWORD PTR [rax+0x0]
    4788:	49 89 c8             	mov    r8,rcx
    478b:	48 ff c1             	inc    rcx
    478e:	49 c1 e0 04          	shl    r8,0x4
    4792:	42 0f 11 04 00       	movups XMMWORD PTR [rax+r8*1],xmm0
    4797:	48 39 cf             	cmp    rdi,rcx
    479a:	75 ec                	jne    4788 <memset32+0x28>
    479c:	f6 c2 03             	test   dl,0x3
    479f:	74 1e                	je     47bf <memset32+0x5f>
    47a1:	48 83 e2 fc          	and    rdx,0xfffffffffffffffc
    47a5:	48 8d 0c 90          	lea    rcx,[rax+rdx*4]
    47a9:	49 29 d1             	sub    r9,rdx
    47ac:	89 31                	mov    DWORD PTR [rcx],esi
    47ae:	4d 85 c9             	test   r9,r9
    47b1:	74 0c                	je     47bf <memset32+0x5f>
    47b3:	89 71 04             	mov    DWORD PTR [rcx+0x4],esi
    47b6:	49 83 f9 01          	cmp    r9,0x1
    47ba:	74 03                	je     47bf <memset32+0x5f>
    47bc:	89 71 08             	mov    DWORD PTR [rcx+0x8],esi
    47bf:	c3                   	ret
    47c0:	48 89 f9             	mov    rcx,rdi
    47c3:	eb e7                	jmp    47ac <memset32+0x4c>
    47c5:	66 66 2e 0f 1f 84 00 	data16 cs nop WORD PTR [rax+rax*1+0x0]
    47cc:	00 00 00 00 

00000000000047d0 <memcmp>:
    47d0:	48 85 d2             	test   rdx,rdx
    47d3:	74 33                	je     4808 <memcmp+0x38>
    47d5:	31 c0                	xor    eax,eax
    47d7:	eb 14                	jmp    47ed <memcmp+0x1d>
    47d9:	0f 1f 80 00 00 00 00 	nop    DWORD PTR [rax+0x0]
    47e0:	41 38 c8             	cmp    r8b,cl
    47e3:	72 2b                	jb     4810 <memcmp+0x40>
    47e5:	48 ff c0             	inc    rax
    47e8:	48 39 c2             	cmp    rdx,rax
    47eb:	74 1b                	je     4808 <memcmp+0x38>
    47ed:	0f b6 0c 07          	movzx  ecx,BYTE PTR [rdi+rax*1]
    47f1:	44 0f b6 04 06       	movzx  r8d,BYTE PTR [rsi+rax*1]
    47f6:	44 38 c1             	cmp    cl,r8b
    47f9:	73 e5                	jae    47e0 <memcmp+0x10>
    47fb:	b8 ff ff ff ff       	mov    eax,0xffffffff
    4800:	c3                   	ret
    4801:	0f 1f 80 00 00 00 00 	nop    DWORD PTR [rax+0x0]
    4808:	31 c0                	xor    eax,eax
    480a:	c3                   	ret
    480b:	0f 1f 44 00 00       	nop    DWORD PTR [rax+rax*1+0x0]
    4810:	b8 01 00 00 00       	mov    eax,0x1
    4815:	c3                   	ret
    4816:	66 2e 0f 1f 84 00 00 	cs nop WORD PTR [rax+rax*1+0x0]
    481d:	00 00 00 

0000000000004820 <pcspkr_beep>:
    4820:	b8 de 34 12 00       	mov    eax,0x1234de
    4825:	31 d2                	xor    edx,edx
    4827:	41 57                	push   r15
    4829:	49 bb 70 4f 00 00 00 	movabs r11,0x4f70
    4830:	00 00 00 
    4833:	f7 ff                	idiv   edi
    4835:	55                   	push   rbp
    4836:	53                   	push   rbx
    4837:	4c 8d 3d e2 ff ff ff 	lea    r15,[rip+0xffffffffffffffe2]        # 4820 <pcspkr_beep>
    483e:	48 bb 75 a1 ff ff ff 	movabs rbx,0xffffffffffffa175
    4845:	ff ff ff 
    4848:	be b6 00 00 00       	mov    esi,0xb6
    484d:	bf 43 00 00 00       	mov    edi,0x43
    4852:	4d 01 df             	add    r15,r11
    4855:	4c 01 fb             	add    rbx,r15
    4858:	89 c5                	mov    ebp,eax
    485a:	ff d3                	call   rbx
    485c:	40 0f b6 f5          	movzx  esi,bpl
    4860:	bf 42 00 00 00       	mov    edi,0x42
    4865:	ff d3                	call   rbx
    4867:	89 e8                	mov    eax,ebp
    4869:	bf 42 00 00 00       	mov    edi,0x42
    486e:	0f b6 f4             	movzx  esi,ah
    4871:	ff d3                	call   rbx
    4873:	48 b8 70 a1 ff ff ff 	movabs rax,0xffffffffffffa170
    487a:	ff ff ff 
    487d:	bf 61 00 00 00       	mov    edi,0x61
    4882:	4c 01 f8             	add    rax,r15
    4885:	ff d0                	call   rax
    4887:	89 c6                	mov    esi,eax
    4889:	f7 d0                	not    eax
    488b:	83 ce 03             	or     esi,0x3
    488e:	a8 03                	test   al,0x3
    4890:	75 0e                	jne    48a0 <pcspkr_beep+0x80>
    4892:	5b                   	pop    rbx
    4893:	5d                   	pop    rbp
    4894:	41 5f                	pop    r15
    4896:	c3                   	ret
    4897:	66 0f 1f 84 00 00 00 	nop    WORD PTR [rax+rax*1+0x0]
    489e:	00 00 
    48a0:	48 89 d8             	mov    rax,rbx
    48a3:	5b                   	pop    rbx
    48a4:	40 0f b6 f6          	movzx  esi,sil
    48a8:	bf 61 00 00 00       	mov    edi,0x61
    48ad:	5d                   	pop    rbp
    48ae:	41 5f                	pop    r15
    48b0:	ff e0                	jmp    rax
    48b2:	66 66 2e 0f 1f 84 00 	data16 cs nop WORD PTR [rax+rax*1+0x0]
    48b9:	00 00 00 00 
    48bd:	0f 1f 00             	nop    DWORD PTR [rax]

00000000000048c0 <pcspkr_stop>:
    48c0:	41 57                	push   r15
    48c2:	49 bb d0 4e 00 00 00 	movabs r11,0x4ed0
    48c9:	00 00 00 
    48cc:	4c 8d 3d ed ff ff ff 	lea    r15,[rip+0xffffffffffffffed]        # 48c0 <pcspkr_stop>
    48d3:	48 b8 70 a1 ff ff ff 	movabs rax,0xffffffffffffa170
    48da:	ff ff ff 
    48dd:	4d 01 df             	add    r15,r11
    48e0:	bf 61 00 00 00       	mov    edi,0x61
    48e5:	4c 01 f8             	add    rax,r15
    48e8:	ff d0                	call   rax
    48ea:	bf 61 00 00 00       	mov    edi,0x61
    48ef:	89 c6                	mov    esi,eax
    48f1:	48 b8 75 a1 ff ff ff 	movabs rax,0xffffffffffffa175
    48f8:	ff ff ff 
    48fb:	4c 01 f8             	add    rax,r15
    48fe:	81 e6 fc 00 00 00    	and    esi,0xfc
    4904:	41 5f                	pop    r15
    4906:	ff e0                	jmp    rax
    4908:	0f 1f 84 00 00 00 00 	nop    DWORD PTR [rax+rax*1+0x0]
    490f:	00 

0000000000004910 <pic_remap>:
    4910:	41 57                	push   r15
    4912:	49 bb 80 4e 00 00 00 	movabs r11,0x4e80
    4919:	00 00 00 
    491c:	4c 8d 3d ed ff ff ff 	lea    r15,[rip+0xffffffffffffffed]        # 4910 <pic_remap>
    4923:	4d 01 df             	add    r15,r11
    4926:	41 56                	push   r14
    4928:	41 89 f6             	mov    r14d,esi
    492b:	41 55                	push   r13
    492d:	41 54                	push   r12
    492f:	55                   	push   rbp
    4930:	48 bd 70 a1 ff ff ff 	movabs rbp,0xffffffffffffa170
    4937:	ff ff ff 
    493a:	4c 01 fd             	add    rbp,r15
    493d:	53                   	push   rbx
    493e:	48 bb 7d a1 ff ff ff 	movabs rbx,0xffffffffffffa17d
    4945:	ff ff ff 
    4948:	4c 01 fb             	add    rbx,r15
    494b:	48 83 ec 18          	sub    rsp,0x18
    494f:	89 7c 24 0c          	mov    DWORD PTR [rsp+0xc],edi
    4953:	bf 21 00 00 00       	mov    edi,0x21
    4958:	ff d5                	call   rbp
    495a:	41 89 c4             	mov    r12d,eax
    495d:	31 c0                	xor    eax,eax
    495f:	ff d3                	call   rbx
    4961:	bf a1 00 00 00       	mov    edi,0xa1
    4966:	ff d5                	call   rbp
    4968:	48 bd 75 a1 ff ff ff 	movabs rbp,0xffffffffffffa175
    496f:	ff ff ff 
    4972:	41 89 c5             	mov    r13d,eax
    4975:	31 c0                	xor    eax,eax
    4977:	4c 01 fd             	add    rbp,r15
    497a:	ff d3                	call   rbx
    497c:	be 11 00 00 00       	mov    esi,0x11
    4981:	bf 20 00 00 00       	mov    edi,0x20
    4986:	ff d5                	call   rbp
    4988:	31 c0                	xor    eax,eax
    498a:	ff d3                	call   rbx
    498c:	be 11 00 00 00       	mov    esi,0x11
    4991:	bf a0 00 00 00       	mov    edi,0xa0
    4996:	ff d5                	call   rbp
    4998:	31 c0                	xor    eax,eax
    499a:	ff d3                	call   rbx
    499c:	8b 54 24 0c          	mov    edx,DWORD PTR [rsp+0xc]
    49a0:	bf 21 00 00 00       	mov    edi,0x21
    49a5:	0f b6 f2             	movzx  esi,dl
    49a8:	ff d5                	call   rbp
    49aa:	31 c0                	xor    eax,eax
    49ac:	ff d3                	call   rbx
    49ae:	41 0f b6 f6          	movzx  esi,r14b
    49b2:	bf a1 00 00 00       	mov    edi,0xa1
    49b7:	ff d5                	call   rbp
    49b9:	31 c0                	xor    eax,eax
    49bb:	ff d3                	call   rbx
    49bd:	be 04 00 00 00       	mov    esi,0x4
    49c2:	bf 21 00 00 00       	mov    edi,0x21
    49c7:	ff d5                	call   rbp
    49c9:	31 c0                	xor    eax,eax
    49cb:	ff d3                	call   rbx
    49cd:	be 02 00 00 00       	mov    esi,0x2
    49d2:	bf a1 00 00 00       	mov    edi,0xa1
    49d7:	ff d5                	call   rbp
    49d9:	31 c0                	xor    eax,eax
    49db:	ff d3                	call   rbx
    49dd:	be 01 00 00 00       	mov    esi,0x1
    49e2:	bf 21 00 00 00       	mov    edi,0x21
    49e7:	ff d5                	call   rbp
    49e9:	31 c0                	xor    eax,eax
    49eb:	ff d3                	call   rbx
    49ed:	be 01 00 00 00       	mov    esi,0x1
    49f2:	bf a1 00 00 00       	mov    edi,0xa1
    49f7:	ff d5                	call   rbp
    49f9:	31 c0                	xor    eax,eax
    49fb:	ff d3                	call   rbx
    49fd:	41 0f b6 f4          	movzx  esi,r12b
    4a01:	bf 21 00 00 00       	mov    edi,0x21
    4a06:	ff d5                	call   rbp
    4a08:	31 c0                	xor    eax,eax
    4a0a:	ff d3                	call   rbx
    4a0c:	41 0f b6 f5          	movzx  esi,r13b
    4a10:	bf a1 00 00 00       	mov    edi,0xa1
    4a15:	ff d5                	call   rbp
    4a17:	48 83 c4 18          	add    rsp,0x18
    4a1b:	48 89 d9             	mov    rcx,rbx
    4a1e:	31 c0                	xor    eax,eax
    4a20:	5b                   	pop    rbx
    4a21:	5d                   	pop    rbp
    4a22:	41 5c                	pop    r12
    4a24:	41 5d                	pop    r13
    4a26:	41 5e                	pop    r14
    4a28:	41 5f                	pop    r15
    4a2a:	ff e1                	jmp    rcx
    4a2c:	0f 1f 40 00          	nop    DWORD PTR [rax+0x0]

0000000000004a30 <pic_setup>:
    4a30:	41 57                	push   r15
    4a32:	49 bb 60 4d 00 00 00 	movabs r11,0x4d60
    4a39:	00 00 00 
    4a3c:	4c 8d 3d ed ff ff ff 	lea    r15,[rip+0xffffffffffffffed]        # 4a30 <pic_setup>
    4a43:	48 b8 10 ed ff ff ff 	movabs rax,0xffffffffffffed10
    4a4a:	ff ff ff 
    4a4d:	4d 01 df             	add    r15,r11
    4a50:	49 8d 3c 07          	lea    rdi,[r15+rax*1]
    4a54:	31 c0                	xor    eax,eax
    4a56:	53                   	push   rbx
    4a57:	48 bb c1 c1 ff ff ff 	movabs rbx,0xffffffffffffc1c1
    4a5e:	ff ff ff 
    4a61:	4c 01 fb             	add    rbx,r15
    4a64:	48 83 ec 08          	sub    rsp,0x8
    4a68:	ff d3                	call   rbx
    4a6a:	fa                   	cli
    4a6b:	48 b8 80 b1 ff ff ff 	movabs rax,0xffffffffffffb180
    4a72:	ff ff ff 
    4a75:	be 28 00 00 00       	mov    esi,0x28
    4a7a:	bf 20 00 00 00       	mov    edi,0x20
    4a7f:	4c 01 f8             	add    rax,r15
    4a82:	ff d0                	call   rax
    4a84:	fb                   	sti
    4a85:	48 83 c4 08          	add    rsp,0x8
    4a89:	48 b8 84 e3 ff ff ff 	movabs rax,0xffffffffffffe384
    4a90:	ff ff ff 
    4a93:	48 89 da             	mov    rdx,rbx
    4a96:	5b                   	pop    rbx
    4a97:	49 8d 3c 07          	lea    rdi,[r15+rax*1]
    4a9b:	31 c0                	xor    eax,eax
    4a9d:	41 5f                	pop    r15
    4a9f:	ff e2                	jmp    rdx
    4aa1:	66 66 2e 0f 1f 84 00 	data16 cs nop WORD PTR [rax+rax*1+0x0]
    4aa8:	00 00 00 00 
    4aac:	0f 1f 40 00          	nop    DWORD PTR [rax+0x0]

0000000000004ab0 <pic_mask>:
    4ab0:	41 57                	push   r15
    4ab2:	49 bb e0 4c 00 00 00 	movabs r11,0x4ce0
    4ab9:	00 00 00 
    4abc:	4c 8d 3d ed ff ff ff 	lea    r15,[rip+0xffffffffffffffed]        # 4ab0 <pic_mask>
    4ac3:	4d 01 df             	add    r15,r11
    4ac6:	55                   	push   rbp
    4ac7:	53                   	push   rbx
    4ac8:	40 80 ff 07          	cmp    dil,0x7
    4acc:	76 52                	jbe    4b20 <pic_mask+0x70>
    4ace:	8d 6f f8             	lea    ebp,[rdi-0x8]
    4ad1:	bb a1 00 00 00       	mov    ebx,0xa1
    4ad6:	48 b8 70 a1 ff ff ff 	movabs rax,0xffffffffffffa170
    4add:	ff ff ff 
    4ae0:	89 df                	mov    edi,ebx
    4ae2:	4c 01 f8             	add    rax,r15
    4ae5:	ff d0                	call   rax
    4ae7:	89 e9                	mov    ecx,ebp
    4ae9:	ba 01 00 00 00       	mov    edx,0x1
    4aee:	89 df                	mov    edi,ebx
    4af0:	d3 e2                	shl    edx,cl
    4af2:	09 d0                	or     eax,edx
    4af4:	0f b6 f0             	movzx  esi,al
    4af7:	48 b8 75 a1 ff ff ff 	movabs rax,0xffffffffffffa175
    4afe:	ff ff ff 
    4b01:	4c 01 f8             	add    rax,r15
    4b04:	ff d0                	call   rax
    4b06:	5b                   	pop    rbx
    4b07:	48 ba 7d a1 ff ff ff 	movabs rdx,0xffffffffffffa17d
    4b0e:	ff ff ff 
    4b11:	31 c0                	xor    eax,eax
    4b13:	5d                   	pop    rbp
    4b14:	4c 01 fa             	add    rdx,r15
    4b17:	41 5f                	pop    r15
    4b19:	ff e2                	jmp    rdx
    4b1b:	0f 1f 44 00 00       	nop    DWORD PTR [rax+rax*1+0x0]
    4b20:	89 fd                	mov    ebp,edi
    4b22:	bb 21 00 00 00       	mov    ebx,0x21
    4b27:	eb ad                	jmp    4ad6 <pic_mask+0x26>
    4b29:	0f 1f 80 00 00 00 00 	nop    DWORD PTR [rax+0x0]

0000000000004b30 <pic_unmask>:
    4b30:	41 57                	push   r15
    4b32:	49 bb 60 4c 00 00 00 	movabs r11,0x4c60
    4b39:	00 00 00 
    4b3c:	4c 8d 3d ed ff ff ff 	lea    r15,[rip+0xffffffffffffffed]        # 4b30 <pic_unmask>
    4b43:	4d 01 df             	add    r15,r11
    4b46:	55                   	push   rbp
    4b47:	53                   	push   rbx
    4b48:	40 80 ff 07          	cmp    dil,0x7
    4b4c:	76 4a                	jbe    4b98 <pic_unmask+0x68>
    4b4e:	8d 6f f8             	lea    ebp,[rdi-0x8]
    4b51:	bb a1 00 00 00       	mov    ebx,0xa1
    4b56:	48 b8 70 a1 ff ff ff 	movabs rax,0xffffffffffffa170
    4b5d:	ff ff ff 
    4b60:	89 df                	mov    edi,ebx
    4b62:	4c 01 f8             	add    rax,r15
    4b65:	ff d0                	call   rax
    4b67:	89 df                	mov    edi,ebx
    4b69:	0f b3 e8             	btr    eax,ebp
    4b6c:	0f b6 f0             	movzx  esi,al
    4b6f:	48 b8 75 a1 ff ff ff 	movabs rax,0xffffffffffffa175
    4b76:	ff ff ff 
    4b79:	4c 01 f8             	add    rax,r15
    4b7c:	ff d0                	call   rax
    4b7e:	5b                   	pop    rbx
    4b7f:	48 ba 7d a1 ff ff ff 	movabs rdx,0xffffffffffffa17d
    4b86:	ff ff ff 
    4b89:	31 c0                	xor    eax,eax
    4b8b:	5d                   	pop    rbp
    4b8c:	4c 01 fa             	add    rdx,r15
    4b8f:	41 5f                	pop    r15
    4b91:	ff e2                	jmp    rdx
    4b93:	0f 1f 44 00 00       	nop    DWORD PTR [rax+rax*1+0x0]
    4b98:	89 fd                	mov    ebp,edi
    4b9a:	bb 21 00 00 00       	mov    ebx,0x21
    4b9f:	eb b5                	jmp    4b56 <pic_unmask+0x26>
    4ba1:	66 66 2e 0f 1f 84 00 	data16 cs nop WORD PTR [rax+rax*1+0x0]
    4ba8:	00 00 00 00 
    4bac:	0f 1f 40 00          	nop    DWORD PTR [rax+0x0]

0000000000004bb0 <pic_send_eoi>:
    4bb0:	41 57                	push   r15
    4bb2:	49 bb e0 4b 00 00 00 	movabs r11,0x4be0
    4bb9:	00 00 00 
    4bbc:	4c 8d 3d ed ff ff ff 	lea    r15,[rip+0xffffffffffffffed]        # 4bb0 <pic_send_eoi>
    4bc3:	4d 01 df             	add    r15,r11
    4bc6:	53                   	push   rbx
    4bc7:	48 bb 75 a1 ff ff ff 	movabs rbx,0xffffffffffffa175
    4bce:	ff ff ff 
    4bd1:	48 83 ec 08          	sub    rsp,0x8
    4bd5:	40 80 ff 07          	cmp    dil,0x7
    4bd9:	77 1d                	ja     4bf8 <pic_send_eoi+0x48>
    4bdb:	48 83 c4 08          	add    rsp,0x8
    4bdf:	4a 8d 04 3b          	lea    rax,[rbx+r15*1]
    4be3:	be 20 00 00 00       	mov    esi,0x20
    4be8:	bf 20 00 00 00       	mov    edi,0x20
    4bed:	5b                   	pop    rbx
    4bee:	41 5f                	pop    r15
    4bf0:	ff e0                	jmp    rax
    4bf2:	66 0f 1f 44 00 00    	nop    WORD PTR [rax+rax*1+0x0]
    4bf8:	be 20 00 00 00       	mov    esi,0x20
    4bfd:	bf a0 00 00 00       	mov    edi,0xa0
    4c02:	4a 8d 04 3b          	lea    rax,[rbx+r15*1]
    4c06:	ff d0                	call   rax
    4c08:	eb d1                	jmp    4bdb <pic_send_eoi+0x2b>
    4c0a:	66 0f 1f 44 00 00    	nop    WORD PTR [rax+rax*1+0x0]

0000000000004c10 <pit_setup>:
    4c10:	41 57                	push   r15
    4c12:	49 bb 80 4b 00 00 00 	movabs r11,0x4b80
    4c19:	00 00 00 
    4c1c:	4c 8d 3d ed ff ff ff 	lea    r15,[rip+0xffffffffffffffed]        # 4c10 <pit_setup>
    4c23:	48 b8 32 ed ff ff ff 	movabs rax,0xffffffffffffed32
    4c2a:	ff ff ff 
    4c2d:	4d 01 df             	add    r15,r11
    4c30:	49 8d 3c 07          	lea    rdi,[r15+rax*1]
    4c34:	31 c0                	xor    eax,eax
    4c36:	55                   	push   rbp
    4c37:	48 bd c1 c1 ff ff ff 	movabs rbp,0xffffffffffffc1c1
    4c3e:	ff ff ff 
    4c41:	4c 01 fd             	add    rbp,r15
    4c44:	53                   	push   rbx
    4c45:	48 83 ec 10          	sub    rsp,0x10
    4c49:	ff d5                	call   rbp
    4c4b:	fa                   	cli
    4c4c:	48 bb 75 a1 ff ff ff 	movabs rbx,0xffffffffffffa175
    4c53:	ff ff ff 
    4c56:	be 36 00 00 00       	mov    esi,0x36
    4c5b:	bf 43 00 00 00       	mov    edi,0x43
    4c60:	c7 44 24 0c a9 04 00 	mov    DWORD PTR [rsp+0xc],0x4a9
    4c67:	00 
    4c68:	4c 01 fb             	add    rbx,r15
    4c6b:	ff d3                	call   rbx
    4c6d:	8b 74 24 0c          	mov    esi,DWORD PTR [rsp+0xc]
    4c71:	bf 40 00 00 00       	mov    edi,0x40
    4c76:	40 0f b6 f6          	movzx  esi,sil
    4c7a:	ff d3                	call   rbx
    4c7c:	8b 44 24 0c          	mov    eax,DWORD PTR [rsp+0xc]
    4c80:	bf 40 00 00 00       	mov    edi,0x40
    4c85:	0f b6 f4             	movzx  esi,ah
    4c88:	ff d3                	call   rbx
    4c8a:	48 b8 a0 b3 ff ff ff 	movabs rax,0xffffffffffffb3a0
    4c91:	ff ff ff 
    4c94:	31 ff                	xor    edi,edi
    4c96:	4c 01 f8             	add    rax,r15
    4c99:	ff d0                	call   rax
    4c9b:	fb                   	sti
    4c9c:	48 83 c4 10          	add    rsp,0x10
    4ca0:	48 b8 84 e3 ff ff ff 	movabs rax,0xffffffffffffe384
    4ca7:	ff ff ff 
    4caa:	48 89 ea             	mov    rdx,rbp
    4cad:	5b                   	pop    rbx
    4cae:	49 8d 3c 07          	lea    rdi,[r15+rax*1]
    4cb2:	31 c0                	xor    eax,eax
    4cb4:	5d                   	pop    rbp
    4cb5:	41 5f                	pop    r15
    4cb7:	ff e2                	jmp    rdx
    4cb9:	0f 1f 80 00 00 00 00 	nop    DWORD PTR [rax+0x0]

0000000000004cc0 <int_pit_handler>:
    4cc0:	41 57                	push   r15
    4cc2:	4c 8d 3d f7 ff ff ff 	lea    r15,[rip+0xfffffffffffffff7]        # 4cc0 <int_pit_handler>
    4cc9:	41 53                	push   r11
    4ccb:	49 bb d0 4a 00 00 00 	movabs r11,0x4ad0
    4cd2:	00 00 00 
    4cd5:	4d 01 df             	add    r15,r11
    4cd8:	41 52                	push   r10
    4cda:	41 51                	push   r9
    4cdc:	41 50                	push   r8
    4cde:	57                   	push   rdi
    4cdf:	56                   	push   rsi
    4ce0:	53                   	push   rbx
    4ce1:	48 bb b0 d0 ff ff ff 	movabs rbx,0xffffffffffffd0b0
    4ce8:	ff ff ff 
    4ceb:	4c 01 fb             	add    rbx,r15
    4cee:	51                   	push   rcx
    4cef:	52                   	push   rdx
    4cf0:	50                   	push   rax
    4cf1:	31 c0                	xor    eax,eax
    4cf3:	fc                   	cld
    4cf4:	ff d3                	call   rbx
    4cf6:	48 bb 20 b4 ff ff ff 	movabs rbx,0xffffffffffffb420
    4cfd:	ff ff ff 
    4d00:	31 ff                	xor    edi,edi
    4d02:	4c 01 fb             	add    rbx,r15
    4d05:	ff d3                	call   rbx
    4d07:	58                   	pop    rax
    4d08:	5a                   	pop    rdx
    4d09:	59                   	pop    rcx
    4d0a:	5b                   	pop    rbx
    4d0b:	5e                   	pop    rsi
    4d0c:	5f                   	pop    rdi
    4d0d:	41 58                	pop    r8
    4d0f:	41 59                	pop    r9
    4d11:	41 5a                	pop    r10
    4d13:	41 5b                	pop    r11
    4d15:	41 5f                	pop    r15
    4d17:	48 cf                	iretq
    4d19:	0f 1f 80 00 00 00 00 	nop    DWORD PTR [rax+0x0]

0000000000004d20 <pointer_handle_mouse>:
    4d20:	41 57                	push   r15
    4d22:	49 bb 70 4a 00 00 00 	movabs r11,0x4a70
    4d29:	00 00 00 
    4d2c:	4c 8d 3d ed ff ff ff 	lea    r15,[rip+0xffffffffffffffed]        # 4d20 <pointer_handle_mouse>
    4d33:	48 ba d0 ff ff ff ff 	movabs rdx,0xffffffffffffffd0
    4d3a:	ff ff ff 
    4d3d:	4d 01 df             	add    r15,r11
    4d40:	48 b9 f8 fe ff ff ff 	movabs rcx,0xfffffffffffffef8
    4d47:	ff ff ff 
    4d4a:	49 8b 14 17          	mov    rdx,QWORD PTR [r15+rdx*1]
    4d4e:	48 0f bf 37          	movsx  rsi,WORD PTR [rdi]
    4d52:	49 8b 04 0f          	mov    rax,QWORD PTR [r15+rcx*1]
    4d56:	48 8b 12             	mov    rdx,QWORD PTR [rdx]
    4d59:	48 01 f0             	add    rax,rsi
    4d5c:	44 8b 02             	mov    r8d,DWORD PTR [rdx]
    4d5f:	41 83 e8 32          	sub    r8d,0x32
    4d63:	49 39 c0             	cmp    r8,rax
    4d66:	72 23                	jb     4d8b <pointer_handle_mouse+0x6b>
    4d68:	49 b8 f0 fe ff ff ff 	movabs r8,0xfffffffffffffef0
    4d6f:	ff ff ff 
    4d72:	48 0f bf 7f 02       	movsx  rdi,WORD PTR [rdi+0x2]
    4d77:	44 8b 4a 04          	mov    r9d,DWORD PTR [rdx+0x4]
    4d7b:	4b 8b 04 07          	mov    rax,QWORD PTR [r15+r8*1]
    4d7f:	41 83 e9 32          	sub    r9d,0x32
    4d83:	48 29 f8             	sub    rax,rdi
    4d86:	49 39 c1             	cmp    r9,rax
    4d89:	73 05                	jae    4d90 <pointer_handle_mouse+0x70>
    4d8b:	41 5f                	pop    r15
    4d8d:	c3                   	ret
    4d8e:	66 90                	xchg   ax,ax
    4d90:	49 8b 04 0f          	mov    rax,QWORD PTR [r15+rcx*1]
    4d94:	48 83 ec 08          	sub    rsp,0x8
    4d98:	4c 8d 4a 50          	lea    r9,[rdx+0x50]
    4d9c:	48 01 c6             	add    rsi,rax
    4d9f:	49 89 34 0f          	mov    QWORD PTR [r15+rcx*1],rsi
    4da3:	4b 8b 04 07          	mov    rax,QWORD PTR [r15+r8*1]
    4da7:	48 29 f8             	sub    rax,rdi
    4daa:	4b 89 04 07          	mov    QWORD PTR [r15+r8*1],rax
    4dae:	48 b8 b0 7f ff ff ff 	movabs rax,0xffffffffffff7fb0
    4db5:	ff ff ff 
    4db8:	4c 01 f8             	add    rax,r15
    4dbb:	4b 8b 34 07          	mov    rsi,QWORD PTR [r15+r8*1]
    4dbf:	49 8b 3c 0f          	mov    rdi,QWORD PTR [r15+rcx*1]
    4dc3:	52                   	push   rdx
    4dc4:	45 31 c0             	xor    r8d,r8d
    4dc7:	ba 9f 00 00 00       	mov    edx,0x9f
    4dcc:	b9 64 ff 64 00       	mov    ecx,0x64ff64
    4dd1:	ff d0                	call   rax
    4dd3:	58                   	pop    rax
    4dd4:	5a                   	pop    rdx
    4dd5:	41 5f                	pop    r15
    4dd7:	c3                   	ret

0000000000004dd8 <__vsprintk>:
    4dd8:	55                   	push   rbp
    4dd9:	48 89 e5             	mov    rbp,rsp
    4ddc:	41 57                	push   r15
    4dde:	41 54                	push   r12
    4de0:	53                   	push   rbx
    4de1:	48 81 ec 28 01 00 00 	sub    rsp,0x128
    4de8:	48 8d 1d f9 ff ff ff 	lea    rbx,[rip+0xfffffffffffffff9]        # 4de8 <__vsprintk+0x10>
    4def:	49 bb a8 49 00 00 00 	movabs r11,0x49a8
    4df6:	00 00 00 
    4df9:	4c 01 db             	add    rbx,r11
    4dfc:	48 89 bd c8 fe ff ff 	mov    QWORD PTR [rbp-0x138],rdi
    4e03:	48 89 b5 c0 fe ff ff 	mov    QWORD PTR [rbp-0x140],rsi
    4e0a:	48 c7 45 d8 00 00 00 	mov    QWORD PTR [rbp-0x28],0x0
    4e11:	00 
    4e12:	c6 45 d7 20          	mov    BYTE PTR [rbp-0x29],0x20
    4e16:	48 c7 85 d0 fe ff ff 	mov    QWORD PTR [rbp-0x130],0x0
    4e1d:	00 00 00 00 
    4e21:	48 c7 85 d8 fe ff ff 	mov    QWORD PTR [rbp-0x128],0x0
    4e28:	00 00 00 00 
    4e2c:	48 c7 85 e0 fe ff ff 	mov    QWORD PTR [rbp-0x120],0x0
    4e33:	00 00 00 00 
    4e37:	48 c7 85 e8 fe ff ff 	mov    QWORD PTR [rbp-0x118],0x0
    4e3e:	00 00 00 00 
    4e42:	48 c7 85 f0 fe ff ff 	mov    QWORD PTR [rbp-0x110],0x0
    4e49:	00 00 00 00 
    4e4d:	48 c7 85 f8 fe ff ff 	mov    QWORD PTR [rbp-0x108],0x0
    4e54:	00 00 00 00 
    4e58:	48 c7 85 00 ff ff ff 	mov    QWORD PTR [rbp-0x100],0x0
    4e5f:	00 00 00 00 
    4e63:	48 c7 85 08 ff ff ff 	mov    QWORD PTR [rbp-0xf8],0x0
    4e6a:	00 00 00 00 
    4e6e:	48 c7 85 10 ff ff ff 	mov    QWORD PTR [rbp-0xf0],0x0
    4e75:	00 00 00 00 
    4e79:	48 c7 85 18 ff ff ff 	mov    QWORD PTR [rbp-0xe8],0x0
    4e80:	00 00 00 00 
    4e84:	48 c7 85 20 ff ff ff 	mov    QWORD PTR [rbp-0xe0],0x0
    4e8b:	00 00 00 00 
    4e8f:	48 c7 85 28 ff ff ff 	mov    QWORD PTR [rbp-0xd8],0x0
    4e96:	00 00 00 00 
    4e9a:	48 c7 85 30 ff ff ff 	mov    QWORD PTR [rbp-0xd0],0x0
    4ea1:	00 00 00 00 
    4ea5:	48 c7 85 38 ff ff ff 	mov    QWORD PTR [rbp-0xc8],0x0
    4eac:	00 00 00 00 
    4eb0:	48 c7 85 40 ff ff ff 	mov    QWORD PTR [rbp-0xc0],0x0
    4eb7:	00 00 00 00 
    4ebb:	48 c7 85 48 ff ff ff 	mov    QWORD PTR [rbp-0xb8],0x0
    4ec2:	00 00 00 00 
    4ec6:	48 c7 85 50 ff ff ff 	mov    QWORD PTR [rbp-0xb0],0x0
    4ecd:	00 00 00 00 
    4ed1:	48 c7 85 58 ff ff ff 	mov    QWORD PTR [rbp-0xa8],0x0
    4ed8:	00 00 00 00 
    4edc:	48 c7 85 60 ff ff ff 	mov    QWORD PTR [rbp-0xa0],0x0
    4ee3:	00 00 00 00 
    4ee7:	48 c7 85 68 ff ff ff 	mov    QWORD PTR [rbp-0x98],0x0
    4eee:	00 00 00 00 
    4ef2:	48 c7 85 70 ff ff ff 	mov    QWORD PTR [rbp-0x90],0x0
    4ef9:	00 00 00 00 
    4efd:	48 c7 85 78 ff ff ff 	mov    QWORD PTR [rbp-0x88],0x0
    4f04:	00 00 00 00 
    4f08:	48 c7 45 80 00 00 00 	mov    QWORD PTR [rbp-0x80],0x0
    4f0f:	00 
    4f10:	48 c7 45 88 00 00 00 	mov    QWORD PTR [rbp-0x78],0x0
    4f17:	00 
    4f18:	48 c7 45 90 00 00 00 	mov    QWORD PTR [rbp-0x70],0x0
    4f1f:	00 
    4f20:	48 c7 45 98 00 00 00 	mov    QWORD PTR [rbp-0x68],0x0
    4f27:	00 
    4f28:	48 c7 45 a0 00 00 00 	mov    QWORD PTR [rbp-0x60],0x0
    4f2f:	00 
    4f30:	48 c7 45 a8 00 00 00 	mov    QWORD PTR [rbp-0x58],0x0
    4f37:	00 
    4f38:	48 c7 45 b0 00 00 00 	mov    QWORD PTR [rbp-0x50],0x0
    4f3f:	00 
    4f40:	48 c7 45 b8 00 00 00 	mov    QWORD PTR [rbp-0x48],0x0
    4f47:	00 
    4f48:	48 c7 45 c0 00 00 00 	mov    QWORD PTR [rbp-0x40],0x0
    4f4f:	00 
    4f50:	48 c7 45 c8 00 00 00 	mov    QWORD PTR [rbp-0x38],0x0
    4f57:	00 
    4f58:	48 8b 85 c0 fe ff ff 	mov    rax,QWORD PTR [rbp-0x140]
    4f5f:	0f b6 00             	movzx  eax,BYTE PTR [rax]
    4f62:	0f be c0             	movsx  eax,al
    4f65:	83 f8 25             	cmp    eax,0x25
    4f68:	0f 85 c8 02 00 00    	jne    5236 <__vsprintk+0x45e>
    4f6e:	48 c7 45 d8 00 00 00 	mov    QWORD PTR [rbp-0x28],0x0
    4f75:	00 
    4f76:	c6 45 d7 20          	mov    BYTE PTR [rbp-0x29],0x20
    4f7a:	48 ff 85 c0 fe ff ff 	inc    QWORD PTR [rbp-0x140]
    4f81:	48 8b 85 c0 fe ff ff 	mov    rax,QWORD PTR [rbp-0x140]
    4f88:	0f b6 00             	movzx  eax,BYTE PTR [rax]
    4f8b:	0f be c0             	movsx  eax,al
    4f8e:	83 e8 25             	sub    eax,0x25
    4f91:	83 f8 53             	cmp    eax,0x53
    4f94:	0f 87 99 02 00 00    	ja     5233 <__vsprintk+0x45b>
    4f9a:	89 c0                	mov    eax,eax
    4f9c:	48 8d 14 c5 00 00 00 	lea    rdx,[rax*8+0x0]
    4fa3:	00 
    4fa4:	48 8d 05 2d 35 00 00 	lea    rax,[rip+0x352d]        # 84d8 <vtt_putchar_at+0xd78>
    4fab:	48 8b 14 02          	mov    rdx,QWORD PTR [rdx+rax*1]
    4faf:	48 8d 05 22 35 00 00 	lea    rax,[rip+0x3522]        # 84d8 <vtt_putchar_at+0xd78>
    4fb6:	48 01 d0             	add    rax,rdx
    4fb9:	ff e0                	jmp    rax
    4fbb:	48 8b 85 c0 fe ff ff 	mov    rax,QWORD PTR [rbp-0x140]
    4fc2:	0f b6 00             	movzx  eax,BYTE PTR [rax]
    4fc5:	88 85 d0 fe ff ff    	mov    BYTE PTR [rbp-0x130],al
    4fcb:	48 8d 85 d0 fe ff ff 	lea    rax,[rbp-0x130]
    4fd2:	48 8b 95 c8 fe ff ff 	mov    rdx,QWORD PTR [rbp-0x138]
    4fd9:	48 89 c6             	mov    rsi,rax
    4fdc:	48 89 d7             	mov    rdi,rdx
    4fdf:	49 89 df             	mov    r15,rbx
    4fe2:	48 b8 00 ce ff ff ff 	movabs rax,0xffffffffffffce00
    4fe9:	ff ff ff 
    4fec:	48 01 d8             	add    rax,rbx
    4fef:	ff d0                	call   rax
    4ff1:	e9 3e 02 00 00       	jmp    5234 <__vsprintk+0x45c>
    4ff6:	c6 45 d7 30          	mov    BYTE PTR [rbp-0x29],0x30
    4ffa:	e9 7b ff ff ff       	jmp    4f7a <__vsprintk+0x1a2>
    4fff:	48 8b 85 c0 fe ff ff 	mov    rax,QWORD PTR [rbp-0x140]
    5006:	0f b6 00             	movzx  eax,BYTE PTR [rax]
    5009:	88 85 d0 fe ff ff    	mov    BYTE PTR [rbp-0x130],al
    500f:	48 8b 85 c0 fe ff ff 	mov    rax,QWORD PTR [rbp-0x140]
    5016:	48 ff c0             	inc    rax
    5019:	0f b6 00             	movzx  eax,BYTE PTR [rax]
    501c:	88 45 d6             	mov    BYTE PTR [rbp-0x2a],al
    501f:	80 7d d6 2f          	cmp    BYTE PTR [rbp-0x2a],0x2f
    5023:	7e 17                	jle    503c <__vsprintk+0x264>
    5025:	80 7d d6 39          	cmp    BYTE PTR [rbp-0x2a],0x39
    5029:	7f 11                	jg     503c <__vsprintk+0x264>
    502b:	0f b6 45 d6          	movzx  eax,BYTE PTR [rbp-0x2a]
    502f:	88 85 d1 fe ff ff    	mov    BYTE PTR [rbp-0x12f],al
    5035:	48 ff 85 c0 fe ff ff 	inc    QWORD PTR [rbp-0x140]
    503c:	48 8d 85 d0 fe ff ff 	lea    rax,[rbp-0x130]
    5043:	48 89 c7             	mov    rdi,rax
    5046:	49 89 df             	mov    r15,rbx
    5049:	48 b8 e0 79 ff ff ff 	movabs rax,0xffffffffffff79e0
    5050:	ff ff ff 
    5053:	48 01 d8             	add    rax,rbx
    5056:	ff d0                	call   rax
    5058:	48 89 45 d8          	mov    QWORD PTR [rbp-0x28],rax
    505c:	e9 19 ff ff ff       	jmp    4f7a <__vsprintk+0x1a2>
    5061:	48 8d 7d 10          	lea    rdi,[rbp+0x10]
    5065:	49 89 df             	mov    r15,rbx
    5068:	48 b8 d4 d1 ff ff ff 	movabs rax,0xffffffffffffd1d4
    506f:	ff ff ff 
    5072:	48 01 d8             	add    rax,rbx
    5075:	ff d0                	call   rax
    5077:	88 85 d0 fe ff ff    	mov    BYTE PTR [rbp-0x130],al
    507d:	48 8d 85 d0 fe ff ff 	lea    rax,[rbp-0x130]
    5084:	48 8b 95 c8 fe ff ff 	mov    rdx,QWORD PTR [rbp-0x138]
    508b:	48 89 c6             	mov    rsi,rax
    508e:	48 89 d7             	mov    rdi,rdx
    5091:	49 89 df             	mov    r15,rbx
    5094:	48 b8 00 ce ff ff ff 	movabs rax,0xffffffffffffce00
    509b:	ff ff ff 
    509e:	48 01 d8             	add    rax,rbx
    50a1:	ff d0                	call   rax
    50a3:	e9 8c 01 00 00       	jmp    5234 <__vsprintk+0x45c>
    50a8:	44 0f be 65 d7       	movsx  r12d,BYTE PTR [rbp-0x29]
    50ad:	48 8d 7d 10          	lea    rdi,[rbp+0x10]
    50b1:	49 89 df             	mov    r15,rbx
    50b4:	48 b8 d4 d1 ff ff ff 	movabs rax,0xffffffffffffd1d4
    50bb:	ff ff ff 
    50be:	48 01 d8             	add    rax,rbx
    50c1:	ff d0                	call   rax
    50c3:	48 89 c7             	mov    rdi,rax
    50c6:	48 8b 55 d8          	mov    rdx,QWORD PTR [rbp-0x28]
    50ca:	48 8d 85 d0 fe ff ff 	lea    rax,[rbp-0x130]
    50d1:	44 89 e1             	mov    ecx,r12d
    50d4:	48 89 c6             	mov    rsi,rax
    50d7:	49 89 df             	mov    r15,rbx
    50da:	48 b8 c0 7a ff ff ff 	movabs rax,0xffffffffffff7ac0
    50e1:	ff ff ff 
    50e4:	48 01 d8             	add    rax,rbx
    50e7:	ff d0                	call   rax
    50e9:	48 8d 85 d0 fe ff ff 	lea    rax,[rbp-0x130]
    50f0:	48 8b 95 c8 fe ff ff 	mov    rdx,QWORD PTR [rbp-0x138]
    50f7:	48 89 c6             	mov    rsi,rax
    50fa:	48 89 d7             	mov    rdi,rdx
    50fd:	49 89 df             	mov    r15,rbx
    5100:	48 b8 00 ce ff ff ff 	movabs rax,0xffffffffffffce00
    5107:	ff ff ff 
    510a:	48 01 d8             	add    rax,rbx
    510d:	ff d0                	call   rax
    510f:	e9 20 01 00 00       	jmp    5234 <__vsprintk+0x45c>
    5114:	44 0f be 65 d7       	movsx  r12d,BYTE PTR [rbp-0x29]
    5119:	48 8d 7d 10          	lea    rdi,[rbp+0x10]
    511d:	49 89 df             	mov    r15,rbx
    5120:	48 b8 d4 d1 ff ff ff 	movabs rax,0xffffffffffffd1d4
    5127:	ff ff ff 
    512a:	48 01 d8             	add    rax,rbx
    512d:	ff d0                	call   rax
    512f:	48 89 c7             	mov    rdi,rax
    5132:	48 8b 55 d8          	mov    rdx,QWORD PTR [rbp-0x28]
    5136:	48 8d 85 d0 fe ff ff 	lea    rax,[rbp-0x130]
    513d:	45 89 e0             	mov    r8d,r12d
    5140:	48 89 d1             	mov    rcx,rdx
    5143:	ba 00 00 00 00       	mov    edx,0x0
    5148:	48 89 c6             	mov    rsi,rax
    514b:	49 89 df             	mov    r15,rbx
    514e:	48 b8 70 7c ff ff ff 	movabs rax,0xffffffffffff7c70
    5155:	ff ff ff 
    5158:	48 01 d8             	add    rax,rbx
    515b:	ff d0                	call   rax
    515d:	48 8d 85 d0 fe ff ff 	lea    rax,[rbp-0x130]
    5164:	48 8b 95 c8 fe ff ff 	mov    rdx,QWORD PTR [rbp-0x138]
    516b:	48 89 c6             	mov    rsi,rax
    516e:	48 89 d7             	mov    rdi,rdx
    5171:	49 89 df             	mov    r15,rbx
    5174:	48 b8 00 ce ff ff ff 	movabs rax,0xffffffffffffce00
    517b:	ff ff ff 
    517e:	48 01 d8             	add    rax,rbx
    5181:	ff d0                	call   rax
    5183:	e9 ac 00 00 00       	jmp    5234 <__vsprintk+0x45c>
    5188:	44 0f be 65 d7       	movsx  r12d,BYTE PTR [rbp-0x29]
    518d:	48 8d 7d 10          	lea    rdi,[rbp+0x10]
    5191:	49 89 df             	mov    r15,rbx
    5194:	48 b8 d4 d1 ff ff ff 	movabs rax,0xffffffffffffd1d4
    519b:	ff ff ff 
    519e:	48 01 d8             	add    rax,rbx
    51a1:	ff d0                	call   rax
    51a3:	48 89 c7             	mov    rdi,rax
    51a6:	48 8b 55 d8          	mov    rdx,QWORD PTR [rbp-0x28]
    51aa:	48 8d 85 d0 fe ff ff 	lea    rax,[rbp-0x130]
    51b1:	45 89 e0             	mov    r8d,r12d
    51b4:	48 89 d1             	mov    rcx,rdx
    51b7:	ba 01 00 00 00       	mov    edx,0x1
    51bc:	48 89 c6             	mov    rsi,rax
    51bf:	49 89 df             	mov    r15,rbx
    51c2:	48 b8 70 7c ff ff ff 	movabs rax,0xffffffffffff7c70
    51c9:	ff ff ff 
    51cc:	48 01 d8             	add    rax,rbx
    51cf:	ff d0                	call   rax
    51d1:	48 8d 85 d0 fe ff ff 	lea    rax,[rbp-0x130]
    51d8:	48 8b 95 c8 fe ff ff 	mov    rdx,QWORD PTR [rbp-0x138]
    51df:	48 89 c6             	mov    rsi,rax
    51e2:	48 89 d7             	mov    rdi,rdx
    51e5:	49 89 df             	mov    r15,rbx
    51e8:	48 b8 00 ce ff ff ff 	movabs rax,0xffffffffffffce00
    51ef:	ff ff ff 
    51f2:	48 01 d8             	add    rax,rbx
    51f5:	ff d0                	call   rax
    51f7:	eb 3b                	jmp    5234 <__vsprintk+0x45c>
    51f9:	48 8d 7d 10          	lea    rdi,[rbp+0x10]
    51fd:	49 89 df             	mov    r15,rbx
    5200:	48 b8 d4 d1 ff ff ff 	movabs rax,0xffffffffffffd1d4
    5207:	ff ff ff 
    520a:	48 01 d8             	add    rax,rbx
    520d:	ff d0                	call   rax
    520f:	48 89 c2             	mov    rdx,rax
    5212:	48 8b 85 c8 fe ff ff 	mov    rax,QWORD PTR [rbp-0x138]
    5219:	48 89 d6             	mov    rsi,rdx
    521c:	48 89 c7             	mov    rdi,rax
    521f:	49 89 df             	mov    r15,rbx
    5222:	48 b8 00 ce ff ff ff 	movabs rax,0xffffffffffffce00
    5229:	ff ff ff 
    522c:	48 01 d8             	add    rax,rbx
    522f:	ff d0                	call   rax
    5231:	eb 01                	jmp    5234 <__vsprintk+0x45c>
    5233:	90                   	nop
    5234:	eb 37                	jmp    526d <__vsprintk+0x495>
    5236:	48 8b 85 c0 fe ff ff 	mov    rax,QWORD PTR [rbp-0x140]
    523d:	0f b6 00             	movzx  eax,BYTE PTR [rax]
    5240:	88 85 d0 fe ff ff    	mov    BYTE PTR [rbp-0x130],al
    5246:	48 8d 85 d0 fe ff ff 	lea    rax,[rbp-0x130]
    524d:	48 8b 95 c8 fe ff ff 	mov    rdx,QWORD PTR [rbp-0x138]
    5254:	48 89 c6             	mov    rsi,rax
    5257:	48 89 d7             	mov    rdi,rdx
    525a:	49 89 df             	mov    r15,rbx
    525d:	48 b8 00 ce ff ff ff 	movabs rax,0xffffffffffffce00
    5264:	ff ff ff 
    5267:	48 01 d8             	add    rax,rbx
    526a:	ff d0                	call   rax
    526c:	90                   	nop
    526d:	48 8b 85 c0 fe ff ff 	mov    rax,QWORD PTR [rbp-0x140]
    5274:	48 8d 50 01          	lea    rdx,[rax+0x1]
    5278:	48 89 95 c0 fe ff ff 	mov    QWORD PTR [rbp-0x140],rdx
    527f:	0f b6 00             	movzx  eax,BYTE PTR [rax]
    5282:	84 c0                	test   al,al
    5284:	0f 85 8c fb ff ff    	jne    4e16 <__vsprintk+0x3e>
    528a:	48 8b 85 c8 fe ff ff 	mov    rax,QWORD PTR [rbp-0x138]
    5291:	48 89 c7             	mov    rdi,rax
    5294:	49 89 df             	mov    r15,rbx
    5297:	48 b8 70 cd ff ff ff 	movabs rax,0xffffffffffffcd70
    529e:	ff ff ff 
    52a1:	48 01 d8             	add    rax,rbx
    52a4:	ff d0                	call   rax
    52a6:	48 81 c4 28 01 00 00 	add    rsp,0x128
    52ad:	5b                   	pop    rbx
    52ae:	41 5c                	pop    r12
    52b0:	41 5f                	pop    r15
    52b2:	5d                   	pop    rbp
    52b3:	c3                   	ret

00000000000052b4 <sprintk>:
    52b4:	55                   	push   rbp
    52b5:	48 89 e5             	mov    rbp,rsp
    52b8:	41 57                	push   r15
    52ba:	53                   	push   rbx
    52bb:	48 81 ec 20 01 00 00 	sub    rsp,0x120
    52c2:	48 8d 1d f9 ff ff ff 	lea    rbx,[rip+0xfffffffffffffff9]        # 52c2 <sprintk+0xe>
    52c9:	49 bb ce 44 00 00 00 	movabs r11,0x44ce
    52d0:	00 00 00 
    52d3:	4c 01 db             	add    rbx,r11
    52d6:	48 89 bd d8 fe ff ff 	mov    QWORD PTR [rbp-0x128],rdi
    52dd:	48 89 b5 d0 fe ff ff 	mov    QWORD PTR [rbp-0x130],rsi
    52e4:	48 89 95 50 ff ff ff 	mov    QWORD PTR [rbp-0xb0],rdx
    52eb:	48 89 8d 58 ff ff ff 	mov    QWORD PTR [rbp-0xa8],rcx
    52f2:	4c 89 85 60 ff ff ff 	mov    QWORD PTR [rbp-0xa0],r8
    52f9:	4c 89 8d 68 ff ff ff 	mov    QWORD PTR [rbp-0x98],r9
    5300:	84 c0                	test   al,al
    5302:	74 23                	je     5327 <sprintk+0x73>
    5304:	0f 29 85 70 ff ff ff 	movaps XMMWORD PTR [rbp-0x90],xmm0
    530b:	0f 29 4d 80          	movaps XMMWORD PTR [rbp-0x80],xmm1
    530f:	0f 29 55 90          	movaps XMMWORD PTR [rbp-0x70],xmm2
    5313:	0f 29 5d a0          	movaps XMMWORD PTR [rbp-0x60],xmm3
    5317:	0f 29 65 b0          	movaps XMMWORD PTR [rbp-0x50],xmm4
    531b:	0f 29 6d c0          	movaps XMMWORD PTR [rbp-0x40],xmm5
    531f:	0f 29 75 d0          	movaps XMMWORD PTR [rbp-0x30],xmm6
    5323:	0f 29 7d e0          	movaps XMMWORD PTR [rbp-0x20],xmm7
    5327:	48 8d 85 e0 fe ff ff 	lea    rax,[rbp-0x120]
    532e:	48 89 c7             	mov    rdi,rax
    5331:	49 89 df             	mov    r15,rbx
    5334:	48 b8 a0 d1 ff ff ff 	movabs rax,0xffffffffffffd1a0
    533b:	ff ff ff 
    533e:	48 01 d8             	add    rax,rbx
    5341:	ff d0                	call   rax
    5343:	48 8d 85 e0 fe ff ff 	lea    rax,[rbp-0x120]
    534a:	48 89 c7             	mov    rdi,rax
    534d:	49 89 df             	mov    r15,rbx
    5350:	48 b8 d4 d1 ff ff ff 	movabs rax,0xffffffffffffd1d4
    5357:	ff ff ff 
    535a:	48 01 d8             	add    rax,rbx
    535d:	ff d0                	call   rax
    535f:	48 c7 85 38 ff ff ff 	mov    QWORD PTR [rbp-0xc8],0x0
    5366:	00 00 00 00 
    536a:	48 8b 8d d0 fe ff ff 	mov    rcx,QWORD PTR [rbp-0x130]
    5371:	48 8b 95 d8 fe ff ff 	mov    rdx,QWORD PTR [rbp-0x128]
    5378:	48 83 ec 50          	sub    rsp,0x50
    537c:	48 89 e0             	mov    rax,rsp
    537f:	48 8b b5 e0 fe ff ff 	mov    rsi,QWORD PTR [rbp-0x120]
    5386:	48 8b bd e8 fe ff ff 	mov    rdi,QWORD PTR [rbp-0x118]
    538d:	48 89 30             	mov    QWORD PTR [rax],rsi
    5390:	48 89 78 08          	mov    QWORD PTR [rax+0x8],rdi
    5394:	48 8b b5 f0 fe ff ff 	mov    rsi,QWORD PTR [rbp-0x110]
    539b:	48 8b bd f8 fe ff ff 	mov    rdi,QWORD PTR [rbp-0x108]
    53a2:	48 89 70 10          	mov    QWORD PTR [rax+0x10],rsi
    53a6:	48 89 78 18          	mov    QWORD PTR [rax+0x18],rdi
    53aa:	48 8b b5 00 ff ff ff 	mov    rsi,QWORD PTR [rbp-0x100]
    53b1:	48 8b bd 08 ff ff ff 	mov    rdi,QWORD PTR [rbp-0xf8]
    53b8:	48 89 70 20          	mov    QWORD PTR [rax+0x20],rsi
    53bc:	48 89 78 28          	mov    QWORD PTR [rax+0x28],rdi
    53c0:	48 8b b5 10 ff ff ff 	mov    rsi,QWORD PTR [rbp-0xf0]
    53c7:	48 8b bd 18 ff ff ff 	mov    rdi,QWORD PTR [rbp-0xe8]
    53ce:	48 89 70 30          	mov    QWORD PTR [rax+0x30],rsi
    53d2:	48 89 78 38          	mov    QWORD PTR [rax+0x38],rdi
    53d6:	48 8b b5 20 ff ff ff 	mov    rsi,QWORD PTR [rbp-0xe0]
    53dd:	48 8b bd 28 ff ff ff 	mov    rdi,QWORD PTR [rbp-0xd8]
    53e4:	48 89 70 40          	mov    QWORD PTR [rax+0x40],rsi
    53e8:	48 89 78 48          	mov    QWORD PTR [rax+0x48],rdi
    53ec:	48 89 ce             	mov    rsi,rcx
    53ef:	48 89 d7             	mov    rdi,rdx
    53f2:	48 b8 48 b6 ff ff ff 	movabs rax,0xffffffffffffb648
    53f9:	ff ff ff 
    53fc:	48 8d 04 03          	lea    rax,[rbx+rax*1]
    5400:	ff d0                	call   rax
    5402:	48 83 c4 50          	add    rsp,0x50
    5406:	48 98                	cdqe
    5408:	48 01 85 38 ff ff ff 	add    QWORD PTR [rbp-0xc8],rax
    540f:	48 8b 85 38 ff ff ff 	mov    rax,QWORD PTR [rbp-0xc8]
    5416:	48 8d 65 f0          	lea    rsp,[rbp-0x10]
    541a:	5b                   	pop    rbx
    541b:	41 5f                	pop    r15
    541d:	5d                   	pop    rbp
    541e:	c3                   	ret

000000000000541f <__vprintk>:
    541f:	55                   	push   rbp
    5420:	48 89 e5             	mov    rbp,rsp
    5423:	41 57                	push   r15
    5425:	53                   	push   rbx
    5426:	48 81 ec 70 04 00 00 	sub    rsp,0x470
    542d:	48 8d 1d f9 ff ff ff 	lea    rbx,[rip+0xfffffffffffffff9]        # 542d <__vprintk+0xe>
    5434:	49 bb 63 43 00 00 00 	movabs r11,0x4363
    543b:	00 00 00 
    543e:	4c 01 db             	add    rbx,r11
    5441:	48 89 bd 88 fb ff ff 	mov    QWORD PTR [rbp-0x478],rdi
    5448:	48 8d 85 e0 fb ff ff 	lea    rax,[rbp-0x420]
    544f:	ba 00 04 00 00       	mov    edx,0x400
    5454:	be 00 00 00 00       	mov    esi,0x0
    5459:	48 89 c7             	mov    rdi,rax
    545c:	49 89 df             	mov    r15,rbx
    545f:	48 b8 e0 ae ff ff ff 	movabs rax,0xffffffffffffaee0
    5466:	ff ff ff 
    5469:	48 01 d8             	add    rax,rbx
    546c:	ff d0                	call   rax
    546e:	48 c7 85 a0 fb ff ff 	mov    QWORD PTR [rbp-0x460],0x0
    5475:	00 00 00 00 
    5479:	48 c7 85 a8 fb ff ff 	mov    QWORD PTR [rbp-0x458],0x0
    5480:	00 00 00 00 
    5484:	48 c7 85 b0 fb ff ff 	mov    QWORD PTR [rbp-0x450],0x0
    548b:	00 00 00 00 
    548f:	48 c7 85 b8 fb ff ff 	mov    QWORD PTR [rbp-0x448],0x0
    5496:	00 00 00 00 
    549a:	48 c7 85 c0 fb ff ff 	mov    QWORD PTR [rbp-0x440],0x0
    54a1:	00 00 00 00 
    54a5:	48 c7 85 c8 fb ff ff 	mov    QWORD PTR [rbp-0x438],0x0
    54ac:	00 00 00 00 
    54b0:	48 c7 85 d0 fb ff ff 	mov    QWORD PTR [rbp-0x430],0x0
    54b7:	00 00 00 00 
    54bb:	48 c7 85 d8 fb ff ff 	mov    QWORD PTR [rbp-0x428],0x0
    54c2:	00 00 00 00 
    54c6:	48 c7 45 e8 00 00 00 	mov    QWORD PTR [rbp-0x18],0x0
    54cd:	00 
    54ce:	48 8b 85 88 fb ff ff 	mov    rax,QWORD PTR [rbp-0x478]
    54d5:	0f b6 00             	movzx  eax,BYTE PTR [rax]
    54d8:	0f be c0             	movsx  eax,al
    54db:	83 f8 01             	cmp    eax,0x1
    54de:	0f 84 53 01 00 00    	je     5637 <__vprintk+0x218>
    54e4:	83 f8 02             	cmp    eax,0x2
    54e7:	0f 85 10 02 00 00    	jne    56fd <__vprintk+0x2de>
    54ed:	48 8d 85 98 fb ff ff 	lea    rax,[rbp-0x468]
    54f4:	48 89 c7             	mov    rdi,rax
    54f7:	49 89 df             	mov    r15,rbx
    54fa:	48 b8 20 d0 ff ff ff 	movabs rax,0xffffffffffffd020
    5501:	ff ff ff 
    5504:	48 01 d8             	add    rax,rbx
    5507:	ff d0                	call   rax
    5509:	49 89 df             	mov    r15,rbx
    550c:	b8 00 00 00 00       	mov    eax,0x0
    5511:	48 ba 40 d1 ff ff ff 	movabs rdx,0xffffffffffffd140
    5518:	ff ff ff 
    551b:	48 01 da             	add    rdx,rbx
    551e:	ff d2                	call   rdx
    5520:	48 89 45 e0          	mov    QWORD PTR [rbp-0x20],rax
    5524:	48 8b 75 e0          	mov    rsi,QWORD PTR [rbp-0x20]
    5528:	48 89 f0             	mov    rax,rsi
    552b:	48 c1 e8 03          	shr    rax,0x3
    552f:	48 ba cf f7 53 e3 a5 	movabs rdx,0x20c49ba5e353f7cf
    5536:	9b c4 20 
    5539:	48 f7 e2             	mul    rdx
    553c:	48 89 d1             	mov    rcx,rdx
    553f:	48 c1 e9 04          	shr    rcx,0x4
    5543:	48 69 c1 e8 03 00 00 	imul   rax,rcx,0x3e8
    554a:	48 89 f1             	mov    rcx,rsi
    554d:	48 29 c1             	sub    rcx,rax
    5550:	48 8b 75 e0          	mov    rsi,QWORD PTR [rbp-0x20]
    5554:	48 89 f0             	mov    rax,rsi
    5557:	48 c1 e8 03          	shr    rax,0x3
    555b:	48 ba cf f7 53 e3 a5 	movabs rdx,0x20c49ba5e353f7cf
    5562:	9b c4 20 
    5565:	48 f7 e2             	mul    rdx
    5568:	48 89 d0             	mov    rax,rdx
    556b:	48 c1 e8 04          	shr    rax,0x4
    556f:	48 69 d0 e8 03 00 00 	imul   rdx,rax,0x3e8
    5576:	48 89 f0             	mov    rax,rsi
    5579:	48 29 d0             	sub    rax,rdx
    557c:	48 8b 55 e0          	mov    rdx,QWORD PTR [rbp-0x20]
    5580:	48 29 c2             	sub    rdx,rax
    5583:	48 89 d0             	mov    rax,rdx
    5586:	48 c1 e8 03          	shr    rax,0x3
    558a:	48 ba cf f7 53 e3 a5 	movabs rdx,0x20c49ba5e353f7cf
    5591:	9b c4 20 
    5594:	48 f7 e2             	mul    rdx
    5597:	48 c1 ea 04          	shr    rdx,0x4
    559b:	49 89 d0             	mov    r8,rdx
    559e:	0f b6 85 9e fb ff ff 	movzx  eax,BYTE PTR [rbp-0x462]
    55a5:	0f b6 f8             	movzx  edi,al
    55a8:	0f b6 85 9d fb ff ff 	movzx  eax,BYTE PTR [rbp-0x463]
    55af:	0f b6 f0             	movzx  esi,al
    55b2:	0f b6 85 9c fb ff ff 	movzx  eax,BYTE PTR [rbp-0x464]
    55b9:	0f b6 d0             	movzx  edx,al
    55bc:	48 8d 85 a0 fb ff ff 	lea    rax,[rbp-0x460]
    55c3:	48 83 ec 08          	sub    rsp,0x8
    55c7:	51                   	push   rcx
    55c8:	4d 89 c1             	mov    r9,r8
    55cb:	41 89 f8             	mov    r8d,edi
    55ce:	89 f1                	mov    ecx,esi
    55d0:	48 be 10 ff ff ff ff 	movabs rsi,0xffffffffffffff10
    55d7:	ff ff ff 
    55da:	48 8d 34 33          	lea    rsi,[rbx+rsi*1]
    55de:	48 89 c7             	mov    rdi,rax
    55e1:	b8 00 00 00 00       	mov    eax,0x0
    55e6:	49 ba 24 bb ff ff ff 	movabs r10,0xffffffffffffbb24
    55ed:	ff ff ff 
    55f0:	4e 8d 14 13          	lea    r10,[rbx+r10*1]
    55f4:	41 ff d2             	call   r10
    55f7:	48 83 c4 10          	add    rsp,0x10
    55fb:	48 8d 85 a0 fb ff ff 	lea    rax,[rbp-0x460]
    5602:	48 89 c7             	mov    rdi,rax
    5605:	49 89 df             	mov    r15,rbx
    5608:	48 b8 70 cc ff ff ff 	movabs rax,0xffffffffffffcc70
    560f:	ff ff ff 
    5612:	48 01 d8             	add    rax,rbx
    5615:	ff d0                	call   rax
    5617:	48 8d 85 a0 fb ff ff 	lea    rax,[rbp-0x460]
    561e:	48 89 c7             	mov    rdi,rax
    5621:	48 b8 eb c2 ff ff ff 	movabs rax,0xffffffffffffc2eb
    5628:	ff ff ff 
    562b:	48 8d 04 03          	lea    rax,[rbx+rax*1]
    562f:	ff d0                	call   rax
    5631:	48 98                	cdqe
    5633:	48 01 45 e8          	add    QWORD PTR [rbp-0x18],rax
    5637:	48 ff 85 88 fb ff ff 	inc    QWORD PTR [rbp-0x478]
    563e:	48 8b 8d 88 fb ff ff 	mov    rcx,QWORD PTR [rbp-0x478]
    5645:	48 8d 95 e0 fb ff ff 	lea    rdx,[rbp-0x420]
    564c:	48 83 ec 50          	sub    rsp,0x50
    5650:	48 89 e0             	mov    rax,rsp
    5653:	48 8b 75 10          	mov    rsi,QWORD PTR [rbp+0x10]
    5657:	48 8b 7d 18          	mov    rdi,QWORD PTR [rbp+0x18]
    565b:	48 89 30             	mov    QWORD PTR [rax],rsi
    565e:	48 89 78 08          	mov    QWORD PTR [rax+0x8],rdi
    5662:	48 8b 75 20          	mov    rsi,QWORD PTR [rbp+0x20]
    5666:	48 8b 7d 28          	mov    rdi,QWORD PTR [rbp+0x28]
    566a:	48 89 70 10          	mov    QWORD PTR [rax+0x10],rsi
    566e:	48 89 78 18          	mov    QWORD PTR [rax+0x18],rdi
    5672:	48 8b 75 30          	mov    rsi,QWORD PTR [rbp+0x30]
    5676:	48 8b 7d 38          	mov    rdi,QWORD PTR [rbp+0x38]
    567a:	48 89 70 20          	mov    QWORD PTR [rax+0x20],rsi
    567e:	48 89 78 28          	mov    QWORD PTR [rax+0x28],rdi
    5682:	48 8b 75 40          	mov    rsi,QWORD PTR [rbp+0x40]
    5686:	48 8b 7d 48          	mov    rdi,QWORD PTR [rbp+0x48]
    568a:	48 89 70 30          	mov    QWORD PTR [rax+0x30],rsi
    568e:	48 89 78 38          	mov    QWORD PTR [rax+0x38],rdi
    5692:	48 8b 75 50          	mov    rsi,QWORD PTR [rbp+0x50]
    5696:	48 8b 7d 58          	mov    rdi,QWORD PTR [rbp+0x58]
    569a:	48 89 70 40          	mov    QWORD PTR [rax+0x40],rsi
    569e:	48 89 78 48          	mov    QWORD PTR [rax+0x48],rdi
    56a2:	48 89 ce             	mov    rsi,rcx
    56a5:	48 89 d7             	mov    rdi,rdx
    56a8:	48 b8 48 b6 ff ff ff 	movabs rax,0xffffffffffffb648
    56af:	ff ff ff 
    56b2:	48 8d 04 03          	lea    rax,[rbx+rax*1]
    56b6:	ff d0                	call   rax
    56b8:	48 83 c4 50          	add    rsp,0x50
    56bc:	48 8d 85 e0 fb ff ff 	lea    rax,[rbp-0x420]
    56c3:	48 89 c7             	mov    rdi,rax
    56c6:	49 89 df             	mov    r15,rbx
    56c9:	48 b8 70 cc ff ff ff 	movabs rax,0xffffffffffffcc70
    56d0:	ff ff ff 
    56d3:	48 01 d8             	add    rax,rbx
    56d6:	ff d0                	call   rax
    56d8:	48 8d 85 e0 fb ff ff 	lea    rax,[rbp-0x420]
    56df:	48 89 c7             	mov    rdi,rax
    56e2:	48 b8 eb c2 ff ff ff 	movabs rax,0xffffffffffffc2eb
    56e9:	ff ff ff 
    56ec:	48 8d 04 03          	lea    rax,[rbx+rax*1]
    56f0:	ff d0                	call   rax
    56f2:	48 98                	cdqe
    56f4:	48 01 45 e8          	add    QWORD PTR [rbp-0x18],rax
    56f8:	e9 9f 00 00 00       	jmp    579c <__vprintk+0x37d>
    56fd:	48 8b 8d 88 fb ff ff 	mov    rcx,QWORD PTR [rbp-0x478]
    5704:	48 8d 95 e0 fb ff ff 	lea    rdx,[rbp-0x420]
    570b:	48 83 ec 50          	sub    rsp,0x50
    570f:	48 89 e0             	mov    rax,rsp
    5712:	48 8b 75 10          	mov    rsi,QWORD PTR [rbp+0x10]
    5716:	48 8b 7d 18          	mov    rdi,QWORD PTR [rbp+0x18]
    571a:	48 89 30             	mov    QWORD PTR [rax],rsi
    571d:	48 89 78 08          	mov    QWORD PTR [rax+0x8],rdi
    5721:	48 8b 75 20          	mov    rsi,QWORD PTR [rbp+0x20]
    5725:	48 8b 7d 28          	mov    rdi,QWORD PTR [rbp+0x28]
    5729:	48 89 70 10          	mov    QWORD PTR [rax+0x10],rsi
    572d:	48 89 78 18          	mov    QWORD PTR [rax+0x18],rdi
    5731:	48 8b 75 30          	mov    rsi,QWORD PTR [rbp+0x30]
    5735:	48 8b 7d 38          	mov    rdi,QWORD PTR [rbp+0x38]
    5739:	48 89 70 20          	mov    QWORD PTR [rax+0x20],rsi
    573d:	48 89 78 28          	mov    QWORD PTR [rax+0x28],rdi
    5741:	48 8b 75 40          	mov    rsi,QWORD PTR [rbp+0x40]
    5745:	48 8b 7d 48          	mov    rdi,QWORD PTR [rbp+0x48]
    5749:	48 89 70 30          	mov    QWORD PTR [rax+0x30],rsi
    574d:	48 89 78 38          	mov    QWORD PTR [rax+0x38],rdi
    5751:	48 8b 75 50          	mov    rsi,QWORD PTR [rbp+0x50]
    5755:	48 8b 7d 58          	mov    rdi,QWORD PTR [rbp+0x58]
    5759:	48 89 70 40          	mov    QWORD PTR [rax+0x40],rsi
    575d:	48 89 78 48          	mov    QWORD PTR [rax+0x48],rdi
    5761:	48 89 ce             	mov    rsi,rcx
    5764:	48 89 d7             	mov    rdi,rdx
    5767:	48 b8 48 b6 ff ff ff 	movabs rax,0xffffffffffffb648
    576e:	ff ff ff 
    5771:	48 8d 04 03          	lea    rax,[rbx+rax*1]
    5775:	ff d0                	call   rax
    5777:	48 83 c4 50          	add    rsp,0x50
    577b:	48 8d 85 e0 fb ff ff 	lea    rax,[rbp-0x420]
    5782:	48 89 c7             	mov    rdi,rax
    5785:	48 b8 eb c2 ff ff ff 	movabs rax,0xffffffffffffc2eb
    578c:	ff ff ff 
    578f:	48 8d 04 03          	lea    rax,[rbx+rax*1]
    5793:	ff d0                	call   rax
    5795:	48 98                	cdqe
    5797:	48 01 45 e8          	add    QWORD PTR [rbp-0x18],rax
    579b:	90                   	nop
    579c:	48 8b 45 e8          	mov    rax,QWORD PTR [rbp-0x18]
    57a0:	48 8d 65 f0          	lea    rsp,[rbp-0x10]
    57a4:	5b                   	pop    rbx
    57a5:	41 5f                	pop    r15
    57a7:	5d                   	pop    rbp
    57a8:	c3                   	ret

00000000000057a9 <__mprintk>:
    57a9:	55                   	push   rbp
    57aa:	48 89 e5             	mov    rbp,rsp
    57ad:	41 57                	push   r15
    57af:	53                   	push   rbx
    57b0:	48 81 ec 10 05 00 00 	sub    rsp,0x510
    57b7:	48 8d 1d f9 ff ff ff 	lea    rbx,[rip+0xfffffffffffffff9]        # 57b7 <__mprintk+0xe>
    57be:	49 bb d9 3f 00 00 00 	movabs r11,0x3fd9
    57c5:	00 00 00 
    57c8:	4c 01 db             	add    rbx,r11
    57cb:	48 89 bd e8 fa ff ff 	mov    QWORD PTR [rbp-0x518],rdi
    57d2:	48 89 b5 e0 fa ff ff 	mov    QWORD PTR [rbp-0x520],rsi
    57d9:	48 89 95 50 ff ff ff 	mov    QWORD PTR [rbp-0xb0],rdx
    57e0:	48 89 8d 58 ff ff ff 	mov    QWORD PTR [rbp-0xa8],rcx
    57e7:	4c 89 85 60 ff ff ff 	mov    QWORD PTR [rbp-0xa0],r8
    57ee:	4c 89 8d 68 ff ff ff 	mov    QWORD PTR [rbp-0x98],r9
    57f5:	84 c0                	test   al,al
    57f7:	74 23                	je     581c <__mprintk+0x73>
    57f9:	0f 29 85 70 ff ff ff 	movaps XMMWORD PTR [rbp-0x90],xmm0
    5800:	0f 29 4d 80          	movaps XMMWORD PTR [rbp-0x80],xmm1
    5804:	0f 29 55 90          	movaps XMMWORD PTR [rbp-0x70],xmm2
    5808:	0f 29 5d a0          	movaps XMMWORD PTR [rbp-0x60],xmm3
    580c:	0f 29 65 b0          	movaps XMMWORD PTR [rbp-0x50],xmm4
    5810:	0f 29 6d c0          	movaps XMMWORD PTR [rbp-0x40],xmm5
    5814:	0f 29 75 d0          	movaps XMMWORD PTR [rbp-0x30],xmm6
    5818:	0f 29 7d e0          	movaps XMMWORD PTR [rbp-0x20],xmm7
    581c:	48 8d 85 f0 fe ff ff 	lea    rax,[rbp-0x110]
    5823:	48 89 c7             	mov    rdi,rax
    5826:	49 89 df             	mov    r15,rbx
    5829:	48 b8 a0 d1 ff ff ff 	movabs rax,0xffffffffffffd1a0
    5830:	ff ff ff 
    5833:	48 01 d8             	add    rax,rbx
    5836:	ff d0                	call   rax
    5838:	48 8d 85 f0 fe ff ff 	lea    rax,[rbp-0x110]
    583f:	48 89 c7             	mov    rdi,rax
    5842:	49 89 df             	mov    r15,rbx
    5845:	48 b8 d4 d1 ff ff ff 	movabs rax,0xffffffffffffd1d4
    584c:	ff ff ff 
    584f:	48 01 d8             	add    rax,rbx
    5852:	ff d0                	call   rax
    5854:	48 8d 85 f0 fa ff ff 	lea    rax,[rbp-0x510]
    585b:	ba 00 04 00 00       	mov    edx,0x400
    5860:	be 00 00 00 00       	mov    esi,0x0
    5865:	48 89 c7             	mov    rdi,rax
    5868:	49 89 df             	mov    r15,rbx
    586b:	48 b8 e0 ae ff ff ff 	movabs rax,0xffffffffffffaee0
    5872:	ff ff ff 
    5875:	48 01 d8             	add    rax,rbx
    5878:	ff d0                	call   rax
    587a:	48 8b 8d e0 fa ff ff 	mov    rcx,QWORD PTR [rbp-0x520]
    5881:	48 8b 95 e8 fa ff ff 	mov    rdx,QWORD PTR [rbp-0x518]
    5888:	48 8d 85 f0 fa ff ff 	lea    rax,[rbp-0x510]
    588f:	48 be e8 ef ff ff ff 	movabs rsi,0xffffffffffffefe8
    5896:	ff ff ff 
    5899:	48 8d 34 33          	lea    rsi,[rbx+rsi*1]
    589d:	48 89 c7             	mov    rdi,rax
    58a0:	b8 00 00 00 00       	mov    eax,0x0
    58a5:	49 b8 24 bb ff ff ff 	movabs r8,0xffffffffffffbb24
    58ac:	ff ff ff 
    58af:	4e 8d 04 03          	lea    r8,[rbx+r8*1]
    58b3:	41 ff d0             	call   r8
    58b6:	48 8d 95 f0 fa ff ff 	lea    rdx,[rbp-0x510]
    58bd:	48 83 ec 50          	sub    rsp,0x50
    58c1:	48 89 e0             	mov    rax,rsp
    58c4:	48 8b b5 f0 fe ff ff 	mov    rsi,QWORD PTR [rbp-0x110]
    58cb:	48 8b bd f8 fe ff ff 	mov    rdi,QWORD PTR [rbp-0x108]
    58d2:	48 89 30             	mov    QWORD PTR [rax],rsi
    58d5:	48 89 78 08          	mov    QWORD PTR [rax+0x8],rdi
    58d9:	48 8b b5 00 ff ff ff 	mov    rsi,QWORD PTR [rbp-0x100]
    58e0:	48 8b bd 08 ff ff ff 	mov    rdi,QWORD PTR [rbp-0xf8]
    58e7:	48 89 70 10          	mov    QWORD PTR [rax+0x10],rsi
    58eb:	48 89 78 18          	mov    QWORD PTR [rax+0x18],rdi
    58ef:	48 8b b5 10 ff ff ff 	mov    rsi,QWORD PTR [rbp-0xf0]
    58f6:	48 8b bd 18 ff ff ff 	mov    rdi,QWORD PTR [rbp-0xe8]
    58fd:	48 89 70 20          	mov    QWORD PTR [rax+0x20],rsi
    5901:	48 89 78 28          	mov    QWORD PTR [rax+0x28],rdi
    5905:	48 8b b5 20 ff ff ff 	mov    rsi,QWORD PTR [rbp-0xe0]
    590c:	48 8b bd 28 ff ff ff 	mov    rdi,QWORD PTR [rbp-0xd8]
    5913:	48 89 70 30          	mov    QWORD PTR [rax+0x30],rsi
    5917:	48 89 78 38          	mov    QWORD PTR [rax+0x38],rdi
    591b:	48 8b b5 30 ff ff ff 	mov    rsi,QWORD PTR [rbp-0xd0]
    5922:	48 8b bd 38 ff ff ff 	mov    rdi,QWORD PTR [rbp-0xc8]
    5929:	48 89 70 40          	mov    QWORD PTR [rax+0x40],rsi
    592d:	48 89 78 48          	mov    QWORD PTR [rax+0x48],rdi
    5931:	48 89 d7             	mov    rdi,rdx
    5934:	48 b8 8f bc ff ff ff 	movabs rax,0xffffffffffffbc8f
    593b:	ff ff ff 
    593e:	48 8d 04 03          	lea    rax,[rbx+rax*1]
    5942:	ff d0                	call   rax
    5944:	48 83 c4 50          	add    rsp,0x50
    5948:	48 8d 65 f0          	lea    rsp,[rbp-0x10]
    594c:	5b                   	pop    rbx
    594d:	41 5f                	pop    r15
    594f:	5d                   	pop    rbp
    5950:	c3                   	ret

0000000000005951 <printk>:
    5951:	55                   	push   rbp
    5952:	48 89 e5             	mov    rbp,rsp
    5955:	41 57                	push   r15
    5957:	53                   	push   rbx
    5958:	48 81 ec 10 01 00 00 	sub    rsp,0x110
    595f:	48 8d 1d f9 ff ff ff 	lea    rbx,[rip+0xfffffffffffffff9]        # 595f <printk+0xe>
    5966:	49 bb 31 3e 00 00 00 	movabs r11,0x3e31
    596d:	00 00 00 
    5970:	4c 01 db             	add    rbx,r11
    5973:	48 89 bd e8 fe ff ff 	mov    QWORD PTR [rbp-0x118],rdi
    597a:	48 89 b5 48 ff ff ff 	mov    QWORD PTR [rbp-0xb8],rsi
    5981:	48 89 95 50 ff ff ff 	mov    QWORD PTR [rbp-0xb0],rdx
    5988:	48 89 8d 58 ff ff ff 	mov    QWORD PTR [rbp-0xa8],rcx
    598f:	4c 89 85 60 ff ff ff 	mov    QWORD PTR [rbp-0xa0],r8
    5996:	4c 89 8d 68 ff ff ff 	mov    QWORD PTR [rbp-0x98],r9
    599d:	84 c0                	test   al,al
    599f:	74 23                	je     59c4 <printk+0x73>
    59a1:	0f 29 85 70 ff ff ff 	movaps XMMWORD PTR [rbp-0x90],xmm0
    59a8:	0f 29 4d 80          	movaps XMMWORD PTR [rbp-0x80],xmm1
    59ac:	0f 29 55 90          	movaps XMMWORD PTR [rbp-0x70],xmm2
    59b0:	0f 29 5d a0          	movaps XMMWORD PTR [rbp-0x60],xmm3
    59b4:	0f 29 65 b0          	movaps XMMWORD PTR [rbp-0x50],xmm4
    59b8:	0f 29 6d c0          	movaps XMMWORD PTR [rbp-0x40],xmm5
    59bc:	0f 29 75 d0          	movaps XMMWORD PTR [rbp-0x30],xmm6
    59c0:	0f 29 7d e0          	movaps XMMWORD PTR [rbp-0x20],xmm7
    59c4:	48 8d 85 f0 fe ff ff 	lea    rax,[rbp-0x110]
    59cb:	48 89 c7             	mov    rdi,rax
    59ce:	49 89 df             	mov    r15,rbx
    59d1:	48 b8 a0 d1 ff ff ff 	movabs rax,0xffffffffffffd1a0
    59d8:	ff ff ff 
    59db:	48 01 d8             	add    rax,rbx
    59de:	ff d0                	call   rax
    59e0:	48 8b 95 e8 fe ff ff 	mov    rdx,QWORD PTR [rbp-0x118]
    59e7:	48 83 ec 50          	sub    rsp,0x50
    59eb:	48 89 e0             	mov    rax,rsp
    59ee:	48 8b b5 f0 fe ff ff 	mov    rsi,QWORD PTR [rbp-0x110]
    59f5:	48 8b bd f8 fe ff ff 	mov    rdi,QWORD PTR [rbp-0x108]
    59fc:	48 89 30             	mov    QWORD PTR [rax],rsi
    59ff:	48 89 78 08          	mov    QWORD PTR [rax+0x8],rdi
    5a03:	48 8b b5 00 ff ff ff 	mov    rsi,QWORD PTR [rbp-0x100]
    5a0a:	48 8b bd 08 ff ff ff 	mov    rdi,QWORD PTR [rbp-0xf8]
    5a11:	48 89 70 10          	mov    QWORD PTR [rax+0x10],rsi
    5a15:	48 89 78 18          	mov    QWORD PTR [rax+0x18],rdi
    5a19:	48 8b b5 10 ff ff ff 	mov    rsi,QWORD PTR [rbp-0xf0]
    5a20:	48 8b bd 18 ff ff ff 	mov    rdi,QWORD PTR [rbp-0xe8]
    5a27:	48 89 70 20          	mov    QWORD PTR [rax+0x20],rsi
    5a2b:	48 89 78 28          	mov    QWORD PTR [rax+0x28],rdi
    5a2f:	48 8b b5 20 ff ff ff 	mov    rsi,QWORD PTR [rbp-0xe0]
    5a36:	48 8b bd 28 ff ff ff 	mov    rdi,QWORD PTR [rbp-0xd8]
    5a3d:	48 89 70 30          	mov    QWORD PTR [rax+0x30],rsi
    5a41:	48 89 78 38          	mov    QWORD PTR [rax+0x38],rdi
    5a45:	48 8b b5 30 ff ff ff 	mov    rsi,QWORD PTR [rbp-0xd0]
    5a4c:	48 8b bd 38 ff ff ff 	mov    rdi,QWORD PTR [rbp-0xc8]
    5a53:	48 89 70 40          	mov    QWORD PTR [rax+0x40],rsi
    5a57:	48 89 78 48          	mov    QWORD PTR [rax+0x48],rdi
    5a5b:	48 89 d7             	mov    rdi,rdx
    5a5e:	48 b8 8f bc ff ff ff 	movabs rax,0xffffffffffffbc8f
    5a65:	ff ff ff 
    5a68:	48 8d 04 03          	lea    rax,[rbx+rax*1]
    5a6c:	ff d0                	call   rax
    5a6e:	48 83 c4 50          	add    rsp,0x50
    5a72:	48 8d 65 f0          	lea    rsp,[rbp-0x10]
    5a76:	5b                   	pop    rbx
    5a77:	41 5f                	pop    r15
    5a79:	5d                   	pop    rbp
    5a7a:	c3                   	ret

0000000000005a7b <putsk>:
    5a7b:	55                   	push   rbp
    5a7c:	48 89 e5             	mov    rbp,rsp
    5a7f:	53                   	push   rbx
    5a80:	48 83 ec 28          	sub    rsp,0x28
    5a84:	48 8d 1d f9 ff ff ff 	lea    rbx,[rip+0xfffffffffffffff9]        # 5a84 <putsk+0x9>
    5a8b:	49 bb 0c 3d 00 00 00 	movabs r11,0x3d0c
    5a92:	00 00 00 
    5a95:	4c 01 db             	add    rbx,r11
    5a98:	48 89 7d d8          	mov    QWORD PTR [rbp-0x28],rdi
    5a9c:	48 c7 45 e8 00 00 00 	mov    QWORD PTR [rbp-0x18],0x0
    5aa3:	00 
    5aa4:	eb 27                	jmp    5acd <putsk+0x52>
    5aa6:	48 8b 55 d8          	mov    rdx,QWORD PTR [rbp-0x28]
    5aaa:	48 8b 45 e8          	mov    rax,QWORD PTR [rbp-0x18]
    5aae:	48 01 d0             	add    rax,rdx
    5ab1:	0f b6 00             	movzx  eax,BYTE PTR [rax]
    5ab4:	0f be c0             	movsx  eax,al
    5ab7:	89 c7                	mov    edi,eax
    5ab9:	48 b8 59 c3 ff ff ff 	movabs rax,0xffffffffffffc359
    5ac0:	ff ff ff 
    5ac3:	48 8d 04 03          	lea    rax,[rbx+rax*1]
    5ac7:	ff d0                	call   rax
    5ac9:	48 ff 45 e8          	inc    QWORD PTR [rbp-0x18]
    5acd:	48 8b 55 d8          	mov    rdx,QWORD PTR [rbp-0x28]
    5ad1:	48 8b 45 e8          	mov    rax,QWORD PTR [rbp-0x18]
    5ad5:	48 01 d0             	add    rax,rdx
    5ad8:	0f b6 00             	movzx  eax,BYTE PTR [rax]
    5adb:	84 c0                	test   al,al
    5add:	75 c7                	jne    5aa6 <putsk+0x2b>
    5adf:	48 8b 45 e8          	mov    rax,QWORD PTR [rbp-0x18]
    5ae3:	48 8b 5d f8          	mov    rbx,QWORD PTR [rbp-0x8]
    5ae7:	c9                   	leave
    5ae8:	c3                   	ret

0000000000005ae9 <putchark>:
    5ae9:	55                   	push   rbp
    5aea:	48 89 e5             	mov    rbp,rsp
    5aed:	41 57                	push   r15
    5aef:	48 83 ec 18          	sub    rsp,0x18
    5af3:	48 8d 05 f9 ff ff ff 	lea    rax,[rip+0xfffffffffffffff9]        # 5af3 <putchark+0xa>
    5afa:	49 bb 9d 3c 00 00 00 	movabs r11,0x3c9d
    5b01:	00 00 00 
    5b04:	4c 01 d8             	add    rax,r11
    5b07:	89 fa                	mov    edx,edi
    5b09:	88 55 ec             	mov    BYTE PTR [rbp-0x14],dl
    5b0c:	0f be 55 ec          	movsx  edx,BYTE PTR [rbp-0x14]
    5b10:	89 d6                	mov    esi,edx
    5b12:	48 ba c8 ff ff ff ff 	movabs rdx,0xffffffffffffffc8
    5b19:	ff ff ff 
    5b1c:	48 8b 14 10          	mov    rdx,QWORD PTR [rax+rdx*1]
    5b20:	48 89 d7             	mov    rdi,rdx
    5b23:	49 89 c7             	mov    r15,rax
    5b26:	48 ba d0 de ff ff ff 	movabs rdx,0xffffffffffffded0
    5b2d:	ff ff ff 
    5b30:	48 01 c2             	add    rdx,rax
    5b33:	ff d2                	call   rdx
    5b35:	0f be 45 ec          	movsx  eax,BYTE PTR [rbp-0x14]
    5b39:	4c 8b 7d f8          	mov    r15,QWORD PTR [rbp-0x8]
    5b3d:	c9                   	leave
    5b3e:	c3                   	ret
    5b3f:	90                   	nop

0000000000005b40 <ps2kbd_setup>:
    5b40:	41 57                	push   r15
    5b42:	49 bb 50 3c 00 00 00 	movabs r11,0x3c50
    5b49:	00 00 00 
    5b4c:	4c 8d 3d ed ff ff ff 	lea    r15,[rip+0xffffffffffffffed]        # 5b40 <ps2kbd_setup>
    5b53:	48 b8 f3 ef ff ff ff 	movabs rax,0xffffffffffffeff3
    5b5a:	ff ff ff 
    5b5d:	4d 01 df             	add    r15,r11
    5b60:	49 8d 3c 07          	lea    rdi,[r15+rax*1]
    5b64:	31 c0                	xor    eax,eax
    5b66:	53                   	push   rbx
    5b67:	48 bb c1 c1 ff ff ff 	movabs rbx,0xffffffffffffc1c1
    5b6e:	ff ff ff 
    5b71:	4c 01 fb             	add    rbx,r15
    5b74:	48 83 ec 08          	sub    rsp,0x8
    5b78:	ff d3                	call   rbx
    5b7a:	fa                   	cli
    5b7b:	48 b8 a0 b3 ff ff ff 	movabs rax,0xffffffffffffb3a0
    5b82:	ff ff ff 
    5b85:	bf 01 00 00 00       	mov    edi,0x1
    5b8a:	4c 01 f8             	add    rax,r15
    5b8d:	ff d0                	call   rax
    5b8f:	fb                   	sti
    5b90:	48 83 c4 08          	add    rsp,0x8
    5b94:	48 b8 84 e3 ff ff ff 	movabs rax,0xffffffffffffe384
    5b9b:	ff ff ff 
    5b9e:	48 89 da             	mov    rdx,rbx
    5ba1:	5b                   	pop    rbx
    5ba2:	49 8d 3c 07          	lea    rdi,[r15+rax*1]
    5ba6:	31 c0                	xor    eax,eax
    5ba8:	41 5f                	pop    r15
    5baa:	ff e2                	jmp    rdx
    5bac:	0f 1f 40 00          	nop    DWORD PTR [rax+0x0]

0000000000005bb0 <ps2kbd_ps2ascii>:
    5bb0:	48 8d 05 f9 ff ff ff 	lea    rax,[rip+0xfffffffffffffff9]        # 5bb0 <ps2kbd_ps2ascii>
    5bb7:	49 bb e0 3b 00 00 00 	movabs r11,0x3be0
    5bbe:	00 00 00 
    5bc1:	31 d2                	xor    edx,edx
    5bc3:	4c 01 d8             	add    rax,r11
    5bc6:	83 ff 3a             	cmp    edi,0x3a
    5bc9:	77 1b                	ja     5be6 <ps2kbd_ps2ascii+0x36>
    5bcb:	48 ba 50 ff ff ff ff 	movabs rdx,0xffffffffffffff50
    5bd2:	ff ff ff 
    5bd5:	40 0f b6 f6          	movzx  esi,sil
    5bd9:	89 ff                	mov    edi,edi
    5bdb:	48 01 d0             	add    rax,rdx
    5bde:	48 8d 14 7e          	lea    rdx,[rsi+rdi*2]
    5be2:	0f b6 14 02          	movzx  edx,BYTE PTR [rdx+rax*1]
    5be6:	89 d0                	mov    eax,edx
    5be8:	c3                   	ret
    5be9:	0f 1f 80 00 00 00 00 	nop    DWORD PTR [rax+0x0]

0000000000005bf0 <int_irq_ps2kbd>:
    5bf0:	41 57                	push   r15
    5bf2:	4c 8d 3d f7 ff ff ff 	lea    r15,[rip+0xfffffffffffffff7]        # 5bf0 <int_irq_ps2kbd>
    5bf9:	41 53                	push   r11
    5bfb:	49 bb a0 3b 00 00 00 	movabs r11,0x3ba0
    5c02:	00 00 00 
    5c05:	4d 01 df             	add    r15,r11
    5c08:	41 52                	push   r10
    5c0a:	41 51                	push   r9
    5c0c:	41 50                	push   r8
    5c0e:	57                   	push   rdi
    5c0f:	56                   	push   rsi
    5c10:	53                   	push   rbx
    5c11:	51                   	push   rcx
    5c12:	52                   	push   rdx
    5c13:	50                   	push   rax
    5c14:	48 83 ec 10          	sub    rsp,0x10
    5c18:	fa                   	cli
    5c19:	48 b8 70 a1 ff ff ff 	movabs rax,0xffffffffffffa170
    5c20:	ff ff ff 
    5c23:	bf 60 00 00 00       	mov    edi,0x60
    5c28:	4c 01 f8             	add    rax,r15
    5c2b:	fc                   	cld
    5c2c:	48 bb a0 a1 ff ff ff 	movabs rbx,0xffffffffffffa1a0
    5c33:	ff ff ff 
    5c36:	ff d0                	call   rax
    5c38:	4c 01 fb             	add    rbx,r15
    5c3b:	0f b6 c0             	movzx  eax,al
    5c3e:	89 44 24 0c          	mov    DWORD PTR [rsp+0xc],eax
    5c42:	8b 7c 24 0c          	mov    edi,DWORD PTR [rsp+0xc]
    5c46:	ff d3                	call   rbx
    5c48:	48 bb 20 b4 ff ff ff 	movabs rbx,0xffffffffffffb420
    5c4f:	ff ff ff 
    5c52:	bf 01 00 00 00       	mov    edi,0x1
    5c57:	4c 01 fb             	add    rbx,r15
    5c5a:	ff d3                	call   rbx
    5c5c:	fb                   	sti
    5c5d:	48 83 c4 10          	add    rsp,0x10
    5c61:	58                   	pop    rax
    5c62:	5a                   	pop    rdx
    5c63:	59                   	pop    rcx
    5c64:	5b                   	pop    rbx
    5c65:	5e                   	pop    rsi
    5c66:	5f                   	pop    rdi
    5c67:	41 58                	pop    r8
    5c69:	41 59                	pop    r9
    5c6b:	41 5a                	pop    r10
    5c6d:	41 5b                	pop    r11
    5c6f:	41 5f                	pop    r15
    5c71:	48 cf                	iretq
    5c73:	66 2e 0f 1f 84 00 00 	cs nop WORD PTR [rax+rax*1+0x0]
    5c7a:	00 00 00 
    5c7d:	0f 1f 00             	nop    DWORD PTR [rax]

0000000000005c80 <ps2mouse_setup>:
    5c80:	41 57                	push   r15
    5c82:	49 bb 10 3b 00 00 00 	movabs r11,0x3b10
    5c89:	00 00 00 
    5c8c:	4c 8d 3d ed ff ff ff 	lea    r15,[rip+0xffffffffffffffed]        # 5c80 <ps2mouse_setup>
    5c93:	bf 01 00 00 00       	mov    edi,0x1
    5c98:	4d 01 df             	add    r15,r11
    5c9b:	41 55                	push   r13
    5c9d:	41 54                	push   r12
    5c9f:	49 bc 40 c8 ff ff ff 	movabs r12,0xffffffffffffc840
    5ca6:	ff ff ff 
    5ca9:	4d 01 fc             	add    r12,r15
    5cac:	55                   	push   rbp
    5cad:	48 bd 75 a1 ff ff ff 	movabs rbp,0xffffffffffffa175
    5cb4:	ff ff ff 
    5cb7:	4c 01 fd             	add    rbp,r15
    5cba:	53                   	push   rbx
    5cbb:	48 bb c0 c7 ff ff ff 	movabs rbx,0xffffffffffffc7c0
    5cc2:	ff ff ff 
    5cc5:	4c 01 fb             	add    rbx,r15
    5cc8:	ff d3                	call   rbx
    5cca:	be a8 00 00 00       	mov    esi,0xa8
    5ccf:	bf 64 00 00 00       	mov    edi,0x64
    5cd4:	ff d5                	call   rbp
    5cd6:	bf ff 00 00 00       	mov    edi,0xff
    5cdb:	41 ff d4             	call   r12
    5cde:	bf 01 00 00 00       	mov    edi,0x1
    5ce3:	ff d3                	call   rbx
    5ce5:	be 20 00 00 00       	mov    esi,0x20
    5cea:	bf 64 00 00 00       	mov    edi,0x64
    5cef:	ff d5                	call   rbp
    5cf1:	31 ff                	xor    edi,edi
    5cf3:	ff d3                	call   rbx
    5cf5:	48 b8 70 a1 ff ff ff 	movabs rax,0xffffffffffffa170
    5cfc:	ff ff ff 
    5cff:	bf 60 00 00 00       	mov    edi,0x60
    5d04:	4c 01 f8             	add    rax,r15
    5d07:	ff d0                	call   rax
    5d09:	bf 01 00 00 00       	mov    edi,0x1
    5d0e:	41 89 c5             	mov    r13d,eax
    5d11:	ff d3                	call   rbx
    5d13:	be 60 00 00 00       	mov    esi,0x60
    5d18:	bf 64 00 00 00       	mov    edi,0x64
    5d1d:	41 83 cd 02          	or     r13d,0x2
    5d21:	ff d5                	call   rbp
    5d23:	bf 01 00 00 00       	mov    edi,0x1
    5d28:	ff d3                	call   rbx
    5d2a:	41 0f b6 f5          	movzx  esi,r13b
    5d2e:	bf 60 00 00 00       	mov    edi,0x60
    5d33:	48 bb e0 c8 ff ff ff 	movabs rbx,0xffffffffffffc8e0
    5d3a:	ff ff ff 
    5d3d:	ff d5                	call   rbp
    5d3f:	bf f6 00 00 00       	mov    edi,0xf6
    5d44:	4c 01 fb             	add    rbx,r15
    5d47:	41 ff d4             	call   r12
    5d4a:	31 c0                	xor    eax,eax
    5d4c:	ff d3                	call   rbx
    5d4e:	bf f4 00 00 00       	mov    edi,0xf4
    5d53:	41 ff d4             	call   r12
    5d56:	31 c0                	xor    eax,eax
    5d58:	ff d3                	call   rbx
    5d5a:	fa                   	cli
    5d5b:	48 bb a0 b3 ff ff ff 	movabs rbx,0xffffffffffffb3a0
    5d62:	ff ff ff 
    5d65:	bf 02 00 00 00       	mov    edi,0x2
    5d6a:	4c 01 fb             	add    rbx,r15
    5d6d:	ff d3                	call   rbx
    5d6f:	bf 0c 00 00 00       	mov    edi,0xc
    5d74:	ff d3                	call   rbx
    5d76:	fb                   	sti
    5d77:	5b                   	pop    rbx
    5d78:	5d                   	pop    rbp
    5d79:	41 5c                	pop    r12
    5d7b:	41 5d                	pop    r13
    5d7d:	41 5f                	pop    r15
    5d7f:	c3                   	ret

0000000000005d80 <ps2mouse_procdata>:
    5d80:	48 89 f8             	mov    rax,rdi
    5d83:	0f b6 3f             	movzx  edi,BYTE PTR [rdi]
    5d86:	48 89 f1             	mov    rcx,rsi
    5d89:	0f b6 50 01          	movzx  edx,BYTE PTR [rax+0x1]
    5d8d:	41 89 f8             	mov    r8d,edi
    5d90:	89 fe                	mov    esi,edi
    5d92:	41 83 e0 10          	and    r8d,0x10
    5d96:	83 e6 20             	and    esi,0x20
    5d99:	40 f6 c7 40          	test   dil,0x40
    5d9d:	74 39                	je     5dd8 <ps2mouse_procdata+0x58>
    5d9f:	40 84 ff             	test   dil,dil
    5da2:	78 6c                	js     5e10 <ps2mouse_procdata+0x90>
    5da4:	45 84 c0             	test   r8b,r8b
    5da7:	0f 84 8b 00 00 00    	je     5e38 <ps2mouse_procdata+0xb8>
    5dad:	f7 da                	neg    edx
    5daf:	bf ff 00 00 00       	mov    edi,0xff
    5db4:	88 50 01             	mov    BYTE PTR [rax+0x1],dl
    5db7:	66 89 79 02          	mov    WORD PTR [rcx+0x2],di
    5dbb:	40 84 f6             	test   sil,sil
    5dbe:	74 33                	je     5df3 <ps2mouse_procdata+0x73>
    5dc0:	0f b6 50 02          	movzx  edx,BYTE PTR [rax+0x2]
    5dc4:	f7 da                	neg    edx
    5dc6:	88 50 02             	mov    BYTE PTR [rax+0x2],dl
    5dc9:	0f b6 c2             	movzx  eax,dl
    5dcc:	f7 d8                	neg    eax
    5dce:	66 89 41 02          	mov    WORD PTR [rcx+0x2],ax
    5dd2:	c3                   	ret
    5dd3:	0f 1f 44 00 00       	nop    DWORD PTR [rax+rax*1+0x0]
    5dd8:	40 84 ff             	test   dil,dil
    5ddb:	78 23                	js     5e00 <ps2mouse_procdata+0x80>
    5ddd:	45 84 c0             	test   r8b,r8b
    5de0:	74 7e                	je     5e60 <ps2mouse_procdata+0xe0>
    5de2:	f7 da                	neg    edx
    5de4:	88 50 01             	mov    BYTE PTR [rax+0x1],dl
    5de7:	0f b6 d2             	movzx  edx,dl
    5dea:	66 89 51 02          	mov    WORD PTR [rcx+0x2],dx
    5dee:	40 84 f6             	test   sil,sil
    5df1:	75 cd                	jne    5dc0 <ps2mouse_procdata+0x40>
    5df3:	0f b6 40 02          	movzx  eax,BYTE PTR [rax+0x2]
    5df7:	66 89 41 02          	mov    WORD PTR [rcx+0x2],ax
    5dfb:	c3                   	ret
    5dfc:	0f 1f 40 00          	nop    DWORD PTR [rax+0x0]
    5e00:	45 84 c0             	test   r8b,r8b
    5e03:	75 7b                	jne    5e80 <ps2mouse_procdata+0x100>
    5e05:	66 89 11             	mov    WORD PTR [rcx],dx
    5e08:	40 84 f6             	test   sil,sil
    5e0b:	74 1e                	je     5e2b <ps2mouse_procdata+0xab>
    5e0d:	eb 19                	jmp    5e28 <ps2mouse_procdata+0xa8>
    5e0f:	90                   	nop
    5e10:	45 84 c0             	test   r8b,r8b
    5e13:	74 5b                	je     5e70 <ps2mouse_procdata+0xf0>
    5e15:	f7 da                	neg    edx
    5e17:	88 50 01             	mov    BYTE PTR [rax+0x1],dl
    5e1a:	ba ff 00 00 00       	mov    edx,0xff
    5e1f:	66 89 51 02          	mov    WORD PTR [rcx+0x2],dx
    5e23:	40 84 f6             	test   sil,sil
    5e26:	74 03                	je     5e2b <ps2mouse_procdata+0xab>
    5e28:	f6 58 02             	neg    BYTE PTR [rax+0x2]
    5e2b:	b8 ff 00 00 00       	mov    eax,0xff
    5e30:	66 89 41 02          	mov    WORD PTR [rcx+0x2],ax
    5e34:	c3                   	ret
    5e35:	0f 1f 00             	nop    DWORD PTR [rax]
    5e38:	66 81 c2 ff 00       	add    dx,0xff
    5e3d:	66 89 11             	mov    WORD PTR [rcx],dx
    5e40:	40 84 f6             	test   sil,sil
    5e43:	74 ae                	je     5df3 <ps2mouse_procdata+0x73>
    5e45:	0f b6 50 02          	movzx  edx,BYTE PTR [rax+0x2]
    5e49:	f7 da                	neg    edx
    5e4b:	88 50 02             	mov    BYTE PTR [rax+0x2],dl
    5e4e:	0f b6 d2             	movzx  edx,dl
    5e51:	f7 da                	neg    edx
    5e53:	66 89 51 02          	mov    WORD PTR [rcx+0x2],dx
    5e57:	c3                   	ret
    5e58:	0f 1f 84 00 00 00 00 	nop    DWORD PTR [rax+rax*1+0x0]
    5e5f:	00 
    5e60:	66 89 11             	mov    WORD PTR [rcx],dx
    5e63:	40 84 f6             	test   sil,sil
    5e66:	75 dd                	jne    5e45 <ps2mouse_procdata+0xc5>
    5e68:	eb 89                	jmp    5df3 <ps2mouse_procdata+0x73>
    5e6a:	66 0f 1f 44 00 00    	nop    WORD PTR [rax+rax*1+0x0]
    5e70:	66 81 c2 ff 00       	add    dx,0xff
    5e75:	66 89 11             	mov    WORD PTR [rcx],dx
    5e78:	40 84 f6             	test   sil,sil
    5e7b:	75 ab                	jne    5e28 <ps2mouse_procdata+0xa8>
    5e7d:	eb ac                	jmp    5e2b <ps2mouse_procdata+0xab>
    5e7f:	90                   	nop
    5e80:	f7 da                	neg    edx
    5e82:	88 50 01             	mov    BYTE PTR [rax+0x1],dl
    5e85:	0f b6 d2             	movzx  edx,dl
    5e88:	66 89 51 02          	mov    WORD PTR [rcx+0x2],dx
    5e8c:	40 84 f6             	test   sil,sil
    5e8f:	75 97                	jne    5e28 <ps2mouse_procdata+0xa8>
    5e91:	eb 98                	jmp    5e2b <ps2mouse_procdata+0xab>
    5e93:	66 66 2e 0f 1f 84 00 	data16 cs nop WORD PTR [rax+rax*1+0x0]
    5e9a:	00 00 00 00 
    5e9e:	66 90                	xchg   ax,ax

0000000000005ea0 <int_irq_ps2mouse>:
    5ea0:	41 57                	push   r15
    5ea2:	4c 8d 3d f7 ff ff ff 	lea    r15,[rip+0xfffffffffffffff7]        # 5ea0 <int_irq_ps2mouse>
    5ea9:	41 53                	push   r11
    5eab:	49 bb f0 38 00 00 00 	movabs r11,0x38f0
    5eb2:	00 00 00 
    5eb5:	4d 01 df             	add    r15,r11
    5eb8:	41 52                	push   r10
    5eba:	41 51                	push   r9
    5ebc:	41 50                	push   r8
    5ebe:	55                   	push   rbp
    5ebf:	57                   	push   rdi
    5ec0:	56                   	push   rsi
    5ec1:	53                   	push   rbx
    5ec2:	51                   	push   rcx
    5ec3:	52                   	push   rdx
    5ec4:	50                   	push   rax
    5ec5:	48 83 ec 18          	sub    rsp,0x18
    5ec9:	fa                   	cli
    5eca:	48 bb e0 c8 ff ff ff 	movabs rbx,0xffffffffffffc8e0
    5ed1:	ff ff ff 
    5ed4:	31 c0                	xor    eax,eax
    5ed6:	4c 01 fb             	add    rbx,r15
    5ed9:	fc                   	cld
    5eda:	ff d3                	call   rbx
    5edc:	88 44 24 05          	mov    BYTE PTR [rsp+0x5],al
    5ee0:	31 c0                	xor    eax,eax
    5ee2:	ff d3                	call   rbx
    5ee4:	88 44 24 06          	mov    BYTE PTR [rsp+0x6],al
    5ee8:	31 c0                	xor    eax,eax
    5eea:	ff d3                	call   rbx
    5eec:	48 8d 5c 24 08       	lea    rbx,[rsp+0x8]
    5ef1:	48 8d 7c 24 05       	lea    rdi,[rsp+0x5]
    5ef6:	88 44 24 07          	mov    BYTE PTR [rsp+0x7],al
    5efa:	48 b8 f0 c5 ff ff ff 	movabs rax,0xffffffffffffc5f0
    5f01:	ff ff ff 
    5f04:	48 89 de             	mov    rsi,rbx
    5f07:	49 8d 2c 07          	lea    rbp,[r15+rax*1]
    5f0b:	ff d5                	call   rbp
    5f0d:	48 89 df             	mov    rdi,rbx
    5f10:	48 bb 90 b5 ff ff ff 	movabs rbx,0xffffffffffffb590
    5f17:	ff ff ff 
    5f1a:	4c 01 fb             	add    rbx,r15
    5f1d:	ff d3                	call   rbx
    5f1f:	48 bb 20 b4 ff ff ff 	movabs rbx,0xffffffffffffb420
    5f26:	ff ff ff 
    5f29:	bf 0c 00 00 00       	mov    edi,0xc
    5f2e:	4c 01 fb             	add    rbx,r15
    5f31:	ff d3                	call   rbx
    5f33:	fb                   	sti
    5f34:	48 83 c4 18          	add    rsp,0x18
    5f38:	58                   	pop    rax
    5f39:	5a                   	pop    rdx
    5f3a:	59                   	pop    rcx
    5f3b:	5b                   	pop    rbx
    5f3c:	5e                   	pop    rsi
    5f3d:	5f                   	pop    rdi
    5f3e:	5d                   	pop    rbp
    5f3f:	41 58                	pop    r8
    5f41:	41 59                	pop    r9
    5f43:	41 5a                	pop    r10
    5f45:	41 5b                	pop    r11
    5f47:	41 5f                	pop    r15
    5f49:	48 cf                	iretq
    5f4b:	0f 1f 44 00 00       	nop    DWORD PTR [rax+rax*1+0x0]

0000000000005f50 <ps2_wait>:
    5f50:	41 57                	push   r15
    5f52:	49 bb 40 38 00 00 00 	movabs r11,0x3840
    5f59:	00 00 00 
    5f5c:	4c 8d 3d ed ff ff ff 	lea    r15,[rip+0xffffffffffffffed]        # 5f50 <ps2_wait>
    5f63:	4d 01 df             	add    r15,r11
    5f66:	53                   	push   rbx
    5f67:	bb a1 86 01 00       	mov    ebx,0x186a1
    5f6c:	48 83 ec 08          	sub    rsp,0x8
    5f70:	40 84 ff             	test   dil,dil
    5f73:	75 2b                	jne    5fa0 <ps2_wait+0x50>
    5f75:	0f 1f 00             	nop    DWORD PTR [rax]
    5f78:	ff cb                	dec    ebx
    5f7a:	74 18                	je     5f94 <ps2_wait+0x44>
    5f7c:	48 b8 70 a1 ff ff ff 	movabs rax,0xffffffffffffa170
    5f83:	ff ff ff 
    5f86:	bf 64 00 00 00       	mov    edi,0x64
    5f8b:	4c 01 f8             	add    rax,r15
    5f8e:	ff d0                	call   rax
    5f90:	a8 01                	test   al,0x1
    5f92:	74 e4                	je     5f78 <ps2_wait+0x28>
    5f94:	48 83 c4 08          	add    rsp,0x8
    5f98:	5b                   	pop    rbx
    5f99:	41 5f                	pop    r15
    5f9b:	c3                   	ret
    5f9c:	0f 1f 40 00          	nop    DWORD PTR [rax+0x0]
    5fa0:	ff cb                	dec    ebx
    5fa2:	74 f0                	je     5f94 <ps2_wait+0x44>
    5fa4:	48 b8 70 a1 ff ff ff 	movabs rax,0xffffffffffffa170
    5fab:	ff ff ff 
    5fae:	bf 64 00 00 00       	mov    edi,0x64
    5fb3:	4c 01 f8             	add    rax,r15
    5fb6:	ff d0                	call   rax
    5fb8:	a8 02                	test   al,0x2
    5fba:	75 e4                	jne    5fa0 <ps2_wait+0x50>
    5fbc:	48 83 c4 08          	add    rsp,0x8
    5fc0:	5b                   	pop    rbx
    5fc1:	41 5f                	pop    r15
    5fc3:	c3                   	ret
    5fc4:	66 66 2e 0f 1f 84 00 	data16 cs nop WORD PTR [rax+rax*1+0x0]
    5fcb:	00 00 00 00 
    5fcf:	90                   	nop

0000000000005fd0 <ps2_write>:
    5fd0:	41 57                	push   r15
    5fd2:	49 bb c0 37 00 00 00 	movabs r11,0x37c0
    5fd9:	00 00 00 
    5fdc:	4c 8d 3d ed ff ff ff 	lea    r15,[rip+0xffffffffffffffed]        # 5fd0 <ps2_write>
    5fe3:	4d 01 df             	add    r15,r11
    5fe6:	41 54                	push   r12
    5fe8:	55                   	push   rbp
    5fe9:	89 fd                	mov    ebp,edi
    5feb:	53                   	push   rbx
    5fec:	bb a1 86 01 00       	mov    ebx,0x186a1
    5ff1:	48 83 ec 08          	sub    rsp,0x8
    5ff5:	0f 1f 00             	nop    DWORD PTR [rax]
    5ff8:	ff cb                	dec    ebx
    5ffa:	74 18                	je     6014 <ps2_write+0x44>
    5ffc:	48 b8 70 a1 ff ff ff 	movabs rax,0xffffffffffffa170
    6003:	ff ff ff 
    6006:	bf 64 00 00 00       	mov    edi,0x64
    600b:	4c 01 f8             	add    rax,r15
    600e:	ff d0                	call   rax
    6010:	a8 02                	test   al,0x2
    6012:	75 e4                	jne    5ff8 <ps2_write+0x28>
    6014:	49 bc 75 a1 ff ff ff 	movabs r12,0xffffffffffffa175
    601b:	ff ff ff 
    601e:	be d4 00 00 00       	mov    esi,0xd4
    6023:	bf 64 00 00 00       	mov    edi,0x64
    6028:	bb a1 86 01 00       	mov    ebx,0x186a1
    602d:	4b 8d 04 3c          	lea    rax,[r12+r15*1]
    6031:	ff d0                	call   rax
    6033:	0f 1f 44 00 00       	nop    DWORD PTR [rax+rax*1+0x0]
    6038:	ff cb                	dec    ebx
    603a:	74 18                	je     6054 <ps2_write+0x84>
    603c:	48 b8 70 a1 ff ff ff 	movabs rax,0xffffffffffffa170
    6043:	ff ff ff 
    6046:	bf 64 00 00 00       	mov    edi,0x64
    604b:	4c 01 f8             	add    rax,r15
    604e:	ff d0                	call   rax
    6050:	a8 02                	test   al,0x2
    6052:	75 e4                	jne    6038 <ps2_write+0x68>
    6054:	48 83 c4 08          	add    rsp,0x8
    6058:	40 0f b6 f5          	movzx  esi,bpl
    605c:	4b 8d 04 3c          	lea    rax,[r12+r15*1]
    6060:	bf 60 00 00 00       	mov    edi,0x60
    6065:	5b                   	pop    rbx
    6066:	5d                   	pop    rbp
    6067:	41 5c                	pop    r12
    6069:	41 5f                	pop    r15
    606b:	ff e0                	jmp    rax
    606d:	0f 1f 00             	nop    DWORD PTR [rax]

0000000000006070 <ps2_read>:
    6070:	41 57                	push   r15
    6072:	49 bb 20 37 00 00 00 	movabs r11,0x3720
    6079:	00 00 00 
    607c:	4c 8d 3d ed ff ff ff 	lea    r15,[rip+0xffffffffffffffed]        # 6070 <ps2_read>
    6083:	4d 01 df             	add    r15,r11
    6086:	41 54                	push   r12
    6088:	49 bc 70 a1 ff ff ff 	movabs r12,0xffffffffffffa170
    608f:	ff ff ff 
    6092:	55                   	push   rbp
    6093:	4b 8d 2c 3c          	lea    rbp,[r12+r15*1]
    6097:	53                   	push   rbx
    6098:	bb a1 86 01 00       	mov    ebx,0x186a1
    609d:	48 83 ec 08          	sub    rsp,0x8
    60a1:	0f 1f 80 00 00 00 00 	nop    DWORD PTR [rax+0x0]
    60a8:	ff cb                	dec    ebx
    60aa:	74 0b                	je     60b7 <ps2_read+0x47>
    60ac:	bf 64 00 00 00       	mov    edi,0x64
    60b1:	ff d5                	call   rbp
    60b3:	a8 01                	test   al,0x1
    60b5:	74 f1                	je     60a8 <ps2_read+0x38>
    60b7:	48 83 c4 08          	add    rsp,0x8
    60bb:	4b 8d 04 3c          	lea    rax,[r12+r15*1]
    60bf:	bf 60 00 00 00       	mov    edi,0x60
    60c4:	5b                   	pop    rbx
    60c5:	5d                   	pop    rbp
    60c6:	41 5c                	pop    r12
    60c8:	41 5f                	pop    r15
    60ca:	ff e0                	jmp    rax
    60cc:	0f 1f 40 00          	nop    DWORD PTR [rax+0x0]

00000000000060d0 <rng_init>:
    60d0:	48 8d 05 f9 ff ff ff 	lea    rax,[rip+0xfffffffffffffff9]        # 60d0 <rng_init>
    60d7:	49 bb c0 36 00 00 00 	movabs r11,0x36c0
    60de:	00 00 00 
    60e1:	48 ba 80 2a 00 00 00 	movabs rdx,0x2a80
    60e8:	00 00 00 
    60eb:	4c 01 d8             	add    rax,r11
    60ee:	48 89 3c 02          	mov    QWORD PTR [rdx+rax*1],rdi
    60f2:	c3                   	ret
    60f3:	66 66 2e 0f 1f 84 00 	data16 cs nop WORD PTR [rax+rax*1+0x0]
    60fa:	00 00 00 00 
    60fe:	66 90                	xchg   ax,ax

0000000000006100 <rng_rand>:
    6100:	49 bb 90 36 00 00 00 	movabs r11,0x3690
    6107:	00 00 00 
    610a:	48 8d 15 ef ff ff ff 	lea    rdx,[rip+0xffffffffffffffef]        # 6100 <rng_rand>
    6111:	48 b9 80 2a 00 00 00 	movabs rcx,0x2a80
    6118:	00 00 00 
    611b:	4c 01 da             	add    rdx,r11
    611e:	48 69 04 11 fd 43 03 	imul   rax,QWORD PTR [rcx+rdx*1],0x343fd
    6125:	00 
    6126:	48 05 c3 9e 26 00    	add    rax,0x269ec3
    612c:	48 89 04 0a          	mov    QWORD PTR [rdx+rcx*1],rax
    6130:	48 c1 e8 10          	shr    rax,0x10
    6134:	25 ff 7f 00 00       	and    eax,0x7fff
    6139:	c3                   	ret
    613a:	66 0f 1f 44 00 00    	nop    WORD PTR [rax+rax*1+0x0]

0000000000006140 <serial_is_transmit_empty>:
    6140:	41 57                	push   r15
    6142:	49 bb 50 36 00 00 00 	movabs r11,0x3650
    6149:	00 00 00 
    614c:	4c 8d 3d ed ff ff ff 	lea    r15,[rip+0xffffffffffffffed]        # 6140 <serial_is_transmit_empty>
    6153:	48 b8 70 a1 ff ff ff 	movabs rax,0xffffffffffffa170
    615a:	ff ff ff 
    615d:	4d 01 df             	add    r15,r11
    6160:	bf fd 03 00 00       	mov    edi,0x3fd
    6165:	4c 01 f8             	add    rax,r15
    6168:	ff d0                	call   rax
    616a:	41 5f                	pop    r15
    616c:	83 e0 20             	and    eax,0x20
    616f:	c3                   	ret

0000000000006170 <serial_write>:
    6170:	41 57                	push   r15
    6172:	49 bb 20 36 00 00 00 	movabs r11,0x3620
    6179:	00 00 00 
    617c:	4c 8d 3d ed ff ff ff 	lea    r15,[rip+0xffffffffffffffed]        # 6170 <serial_write>
    6183:	4d 01 df             	add    r15,r11
    6186:	41 55                	push   r13
    6188:	49 bd 88 2a 00 00 00 	movabs r13,0x2a88
    618f:	00 00 00 
    6192:	41 54                	push   r12
    6194:	49 bc 70 a1 ff ff ff 	movabs r12,0xffffffffffffa170
    619b:	ff ff ff 
    619e:	55                   	push   rbp
    619f:	53                   	push   rbx
    61a0:	4b 8d 1c 3c          	lea    rbx,[r12+r15*1]
    61a4:	43 80 7c 3d 00 00    	cmp    BYTE PTR [r13+r15*1+0x0],0x0
    61aa:	74 2e                	je     61da <serial_write+0x6a>
    61ac:	89 fd                	mov    ebp,edi
    61ae:	66 90                	xchg   ax,ax
    61b0:	bf fd 03 00 00       	mov    edi,0x3fd
    61b5:	ff d3                	call   rbx
    61b7:	a8 20                	test   al,0x20
    61b9:	74 f5                	je     61b0 <serial_write+0x40>
    61bb:	48 bb 75 a1 ff ff ff 	movabs rbx,0xffffffffffffa175
    61c2:	ff ff ff 
    61c5:	40 0f b6 f5          	movzx  esi,bpl
    61c9:	bf f8 03 00 00       	mov    edi,0x3f8
    61ce:	4a 8d 04 3b          	lea    rax,[rbx+r15*1]
    61d2:	ff d0                	call   rax
    61d4:	40 80 fd 0a          	cmp    bpl,0xa
    61d8:	74 0e                	je     61e8 <serial_write+0x78>
    61da:	5b                   	pop    rbx
    61db:	5d                   	pop    rbp
    61dc:	41 5c                	pop    r12
    61de:	41 5d                	pop    r13
    61e0:	41 5f                	pop    r15
    61e2:	c3                   	ret
    61e3:	0f 1f 44 00 00       	nop    DWORD PTR [rax+rax*1+0x0]
    61e8:	43 80 7c 3d 00 00    	cmp    BYTE PTR [r13+r15*1+0x0],0x0
    61ee:	74 ea                	je     61da <serial_write+0x6a>
    61f0:	4d 01 fc             	add    r12,r15
    61f3:	0f 1f 44 00 00       	nop    DWORD PTR [rax+rax*1+0x0]
    61f8:	bf fd 03 00 00       	mov    edi,0x3fd
    61fd:	41 ff d4             	call   r12
    6200:	a8 20                	test   al,0x20
    6202:	74 f4                	je     61f8 <serial_write+0x88>
    6204:	4a 8d 04 3b          	lea    rax,[rbx+r15*1]
    6208:	5b                   	pop    rbx
    6209:	be 0d 00 00 00       	mov    esi,0xd
    620e:	bf f8 03 00 00       	mov    edi,0x3f8
    6213:	5d                   	pop    rbp
    6214:	41 5c                	pop    r12
    6216:	41 5d                	pop    r13
    6218:	41 5f                	pop    r15
    621a:	ff e0                	jmp    rax
    621c:	0f 1f 40 00          	nop    DWORD PTR [rax+0x0]

0000000000006220 <serial_setup>:
    6220:	41 57                	push   r15
    6222:	49 bb 70 35 00 00 00 	movabs r11,0x3570
    6229:	00 00 00 
    622c:	4c 8d 3d ed ff ff ff 	lea    r15,[rip+0xffffffffffffffed]        # 6220 <serial_setup>
    6233:	48 b8 18 f0 ff ff ff 	movabs rax,0xfffffffffffff018
    623a:	ff ff ff 
    623d:	4d 01 df             	add    r15,r11
    6240:	49 8d 3c 07          	lea    rdi,[r15+rax*1]
    6244:	31 c0                	xor    eax,eax
    6246:	41 56                	push   r14
    6248:	41 55                	push   r13
    624a:	41 54                	push   r12
    624c:	49 bc c1 c1 ff ff ff 	movabs r12,0xffffffffffffc1c1
    6253:	ff ff ff 
    6256:	4d 01 fc             	add    r12,r15
    6259:	55                   	push   rbp
    625a:	53                   	push   rbx
    625b:	48 83 ec 18          	sub    rsp,0x18
    625f:	41 ff d4             	call   r12
    6262:	fa                   	cli
    6263:	49 be 75 a1 ff ff ff 	movabs r14,0xffffffffffffa175
    626a:	ff ff ff 
    626d:	31 f6                	xor    esi,esi
    626f:	bf f9 03 00 00       	mov    edi,0x3f9
    6274:	4b 8d 2c 3e          	lea    rbp,[r14+r15*1]
    6278:	ff d5                	call   rbp
    627a:	be 80 00 00 00       	mov    esi,0x80
    627f:	bf fb 03 00 00       	mov    edi,0x3fb
    6284:	ff d5                	call   rbp
    6286:	be 03 00 00 00       	mov    esi,0x3
    628b:	bf f8 03 00 00       	mov    edi,0x3f8
    6290:	ff d5                	call   rbp
    6292:	31 f6                	xor    esi,esi
    6294:	bf f9 03 00 00       	mov    edi,0x3f9
    6299:	ff d5                	call   rbp
    629b:	be 03 00 00 00       	mov    esi,0x3
    62a0:	bf fb 03 00 00       	mov    edi,0x3fb
    62a5:	ff d5                	call   rbp
    62a7:	be c7 00 00 00       	mov    esi,0xc7
    62ac:	bf fa 03 00 00       	mov    edi,0x3fa
    62b1:	ff d5                	call   rbp
    62b3:	be 0b 00 00 00       	mov    esi,0xb
    62b8:	bf fc 03 00 00       	mov    edi,0x3fc
    62bd:	ff d5                	call   rbp
    62bf:	be 1e 00 00 00       	mov    esi,0x1e
    62c4:	bf fc 03 00 00       	mov    edi,0x3fc
    62c9:	ff d5                	call   rbp
    62cb:	bf f8 03 00 00       	mov    edi,0x3f8
    62d0:	be ae 00 00 00       	mov    esi,0xae
    62d5:	ff d5                	call   rbp
    62d7:	48 b8 70 a1 ff ff ff 	movabs rax,0xffffffffffffa170
    62de:	ff ff ff 
    62e1:	bf f8 03 00 00       	mov    edi,0x3f8
    62e6:	4a 8d 1c 38          	lea    rbx,[rax+r15*1]
    62ea:	48 89 44 24 08       	mov    QWORD PTR [rsp+0x8],rax
    62ef:	ff d3                	call   rbx
    62f1:	3c ae                	cmp    al,0xae
    62f3:	74 3b                	je     6330 <serial_setup+0x110>
    62f5:	48 b8 71 f0 ff ff ff 	movabs rax,0xfffffffffffff071
    62fc:	ff ff ff 
    62ff:	49 8d 3c 07          	lea    rdi,[r15+rax*1]
    6303:	31 c0                	xor    eax,eax
    6305:	41 ff d4             	call   r12
    6308:	48 b8 88 2a 00 00 00 	movabs rax,0x2a88
    630f:	00 00 00 
    6312:	41 c6 04 07 00       	mov    BYTE PTR [r15+rax*1],0x0
    6317:	48 83 c4 18          	add    rsp,0x18
    631b:	5b                   	pop    rbx
    631c:	5d                   	pop    rbp
    631d:	41 5c                	pop    r12
    631f:	41 5d                	pop    r13
    6321:	41 5e                	pop    r14
    6323:	41 5f                	pop    r15
    6325:	c3                   	ret
    6326:	66 2e 0f 1f 84 00 00 	cs nop WORD PTR [rax+rax*1+0x0]
    632d:	00 00 00 
    6330:	be 0f 00 00 00       	mov    esi,0xf
    6335:	bf fc 03 00 00       	mov    edi,0x3fc
    633a:	ff d5                	call   rbp
    633c:	fb                   	sti
    633d:	48 b8 84 e3 ff ff ff 	movabs rax,0xffffffffffffe384
    6344:	ff ff ff 
    6347:	49 bd 88 2a 00 00 00 	movabs r13,0x2a88
    634e:	00 00 00 
    6351:	bd 0a 00 00 00       	mov    ebp,0xa
    6356:	49 8d 3c 07          	lea    rdi,[r15+rax*1]
    635a:	31 c0                	xor    eax,eax
    635c:	41 ff d4             	call   r12
    635f:	43 c6 44 3d 00 01    	mov    BYTE PTR [r13+r15*1+0x0],0x1
    6365:	48 b8 41 f0 ff ff ff 	movabs rax,0xfffffffffffff041
    636c:	ff ff ff 
    636f:	4d 8d 24 07          	lea    r12,[r15+rax*1]
    6373:	b8 01 00 00 00       	mov    eax,0x1
    6378:	0f 1f 84 00 00 00 00 	nop    DWORD PTR [rax+rax*1+0x0]
    637f:	00 
    6380:	84 c0                	test   al,al
    6382:	74 24                	je     63a8 <serial_setup+0x188>
    6384:	0f 1f 40 00          	nop    DWORD PTR [rax+0x0]
    6388:	bf fd 03 00 00       	mov    edi,0x3fd
    638d:	ff d3                	call   rbx
    638f:	a8 20                	test   al,0x20
    6391:	74 f5                	je     6388 <serial_setup+0x168>
    6393:	40 0f b6 f5          	movzx  esi,bpl
    6397:	bf f8 03 00 00       	mov    edi,0x3f8
    639c:	4b 8d 04 3e          	lea    rax,[r14+r15*1]
    63a0:	ff d0                	call   rax
    63a2:	40 80 fd 0a          	cmp    bpl,0xa
    63a6:	74 20                	je     63c8 <serial_setup+0x1a8>
    63a8:	41 0f b6 2c 24       	movzx  ebp,BYTE PTR [r12]
    63ad:	49 ff c4             	inc    r12
    63b0:	40 84 ed             	test   bpl,bpl
    63b3:	0f 84 5e ff ff ff    	je     6317 <serial_setup+0xf7>
    63b9:	43 0f b6 44 3d 00    	movzx  eax,BYTE PTR [r13+r15*1+0x0]
    63bf:	eb bf                	jmp    6380 <serial_setup+0x160>
    63c1:	0f 1f 80 00 00 00 00 	nop    DWORD PTR [rax+0x0]
    63c8:	43 80 7c 3d 00 00    	cmp    BYTE PTR [r13+r15*1+0x0],0x0
    63ce:	74 d8                	je     63a8 <serial_setup+0x188>
    63d0:	48 8b 44 24 08       	mov    rax,QWORD PTR [rsp+0x8]
    63d5:	4a 8d 2c 38          	lea    rbp,[rax+r15*1]
    63d9:	0f 1f 80 00 00 00 00 	nop    DWORD PTR [rax+0x0]
    63e0:	bf fd 03 00 00       	mov    edi,0x3fd
    63e5:	ff d5                	call   rbp
    63e7:	a8 20                	test   al,0x20
    63e9:	74 f5                	je     63e0 <serial_setup+0x1c0>
    63eb:	be 0d 00 00 00       	mov    esi,0xd
    63f0:	bf f8 03 00 00       	mov    edi,0x3f8
    63f5:	4b 8d 04 3e          	lea    rax,[r14+r15*1]
    63f9:	ff d0                	call   rax
    63fb:	eb ab                	jmp    63a8 <serial_setup+0x188>
    63fd:	0f 1f 00             	nop    DWORD PTR [rax]

0000000000006400 <serial_print>:
    6400:	41 57                	push   r15
    6402:	49 bb 90 33 00 00 00 	movabs r11,0x3390
    6409:	00 00 00 
    640c:	4c 8d 3d ed ff ff ff 	lea    r15,[rip+0xffffffffffffffed]        # 6400 <serial_print>
    6413:	4d 01 df             	add    r15,r11
    6416:	41 56                	push   r14
    6418:	41 55                	push   r13
    641a:	49 bd 88 2a 00 00 00 	movabs r13,0x2a88
    6421:	00 00 00 
    6424:	41 54                	push   r12
    6426:	55                   	push   rbp
    6427:	53                   	push   rbx
    6428:	48 83 ec 18          	sub    rsp,0x18
    642c:	43 0f b6 44 3d 00    	movzx  eax,BYTE PTR [r13+r15*1+0x0]
    6432:	84 c0                	test   al,al
    6434:	74 7a                	je     64b0 <serial_print+0xb0>
    6436:	44 0f b6 27          	movzx  r12d,BYTE PTR [rdi]
    643a:	45 84 e4             	test   r12b,r12b
    643d:	74 71                	je     64b0 <serial_print+0xb0>
    643f:	48 ba 70 a1 ff ff ff 	movabs rdx,0xffffffffffffa170
    6446:	ff ff ff 
    6449:	48 b9 75 a1 ff ff ff 	movabs rcx,0xffffffffffffa175
    6450:	ff ff ff 
    6453:	48 8d 6f 01          	lea    rbp,[rdi+0x1]
    6457:	48 89 14 24          	mov    QWORD PTR [rsp],rdx
    645b:	4a 8d 1c 3a          	lea    rbx,[rdx+r15*1]
    645f:	4e 8d 34 39          	lea    r14,[rcx+r15*1]
    6463:	48 89 4c 24 08       	mov    QWORD PTR [rsp+0x8],rcx
    6468:	0f 1f 84 00 00 00 00 	nop    DWORD PTR [rax+rax*1+0x0]
    646f:	00 
    6470:	84 c0                	test   al,al
    6472:	74 21                	je     6495 <serial_print+0x95>
    6474:	0f 1f 40 00          	nop    DWORD PTR [rax+0x0]
    6478:	bf fd 03 00 00       	mov    edi,0x3fd
    647d:	ff d3                	call   rbx
    647f:	a8 20                	test   al,0x20
    6481:	74 f5                	je     6478 <serial_print+0x78>
    6483:	41 0f b6 f4          	movzx  esi,r12b
    6487:	bf f8 03 00 00       	mov    edi,0x3f8
    648c:	41 ff d6             	call   r14
    648f:	41 80 fc 0a          	cmp    r12b,0xa
    6493:	74 2b                	je     64c0 <serial_print+0xc0>
    6495:	44 0f b6 65 00       	movzx  r12d,BYTE PTR [rbp+0x0]
    649a:	48 ff c5             	inc    rbp
    649d:	45 84 e4             	test   r12b,r12b
    64a0:	74 0e                	je     64b0 <serial_print+0xb0>
    64a2:	43 0f b6 44 3d 00    	movzx  eax,BYTE PTR [r13+r15*1+0x0]
    64a8:	eb c6                	jmp    6470 <serial_print+0x70>
    64aa:	66 0f 1f 44 00 00    	nop    WORD PTR [rax+rax*1+0x0]
    64b0:	48 83 c4 18          	add    rsp,0x18
    64b4:	5b                   	pop    rbx
    64b5:	5d                   	pop    rbp
    64b6:	41 5c                	pop    r12
    64b8:	41 5d                	pop    r13
    64ba:	41 5e                	pop    r14
    64bc:	41 5f                	pop    r15
    64be:	c3                   	ret
    64bf:	90                   	nop
    64c0:	43 80 7c 3d 00 00    	cmp    BYTE PTR [r13+r15*1+0x0],0x0
    64c6:	74 cd                	je     6495 <serial_print+0x95>
    64c8:	48 8b 04 24          	mov    rax,QWORD PTR [rsp]
    64cc:	4e 8d 24 38          	lea    r12,[rax+r15*1]
    64d0:	bf fd 03 00 00       	mov    edi,0x3fd
    64d5:	41 ff d4             	call   r12
    64d8:	a8 20                	test   al,0x20
    64da:	74 f4                	je     64d0 <serial_print+0xd0>
    64dc:	48 8b 44 24 08       	mov    rax,QWORD PTR [rsp+0x8]
    64e1:	be 0d 00 00 00       	mov    esi,0xd
    64e6:	bf f8 03 00 00       	mov    edi,0x3f8
    64eb:	4c 01 f8             	add    rax,r15
    64ee:	ff d0                	call   rax
    64f0:	eb a3                	jmp    6495 <serial_print+0x95>
    64f2:	66 2e 0f 1f 84 00 00 	cs nop WORD PTR [rax+rax*1+0x0]
    64f9:	00 00 00 
    64fc:	0f 1f 40 00          	nop    DWORD PTR [rax+0x0]

0000000000006500 <strlen>:
    6500:	31 c0                	xor    eax,eax
    6502:	80 3f 00             	cmp    BYTE PTR [rdi],0x0
    6505:	74 19                	je     6520 <strlen+0x20>
    6507:	66 0f 1f 84 00 00 00 	nop    WORD PTR [rax+rax*1+0x0]
    650e:	00 00 
    6510:	48 ff c0             	inc    rax
    6513:	80 3c 07 00          	cmp    BYTE PTR [rdi+rax*1],0x0
    6517:	75 f7                	jne    6510 <strlen+0x10>
    6519:	c3                   	ret
    651a:	66 0f 1f 44 00 00    	nop    WORD PTR [rax+rax*1+0x0]
    6520:	c3                   	ret
    6521:	66 66 2e 0f 1f 84 00 	data16 cs nop WORD PTR [rax+rax*1+0x0]
    6528:	00 00 00 00 
    652c:	0f 1f 40 00          	nop    DWORD PTR [rax+0x0]

0000000000006530 <strrev>:
    6530:	80 3f 00             	cmp    BYTE PTR [rdi],0x0
    6533:	74 4b                	je     6580 <strrev+0x50>
    6535:	31 d2                	xor    edx,edx
    6537:	66 0f 1f 84 00 00 00 	nop    WORD PTR [rax+rax*1+0x0]
    653e:	00 00 
    6540:	48 89 d0             	mov    rax,rdx
    6543:	48 8d 52 01          	lea    rdx,[rdx+0x1]
    6547:	80 7c 07 01 00       	cmp    BYTE PTR [rdi+rax*1+0x1],0x0
    654c:	75 f2                	jne    6540 <strrev+0x10>
    654e:	48 85 c0             	test   rax,rax
    6551:	74 25                	je     6578 <strrev+0x48>
    6553:	31 d2                	xor    edx,edx
    6555:	0f 1f 00             	nop    DWORD PTR [rax]
    6558:	0f b6 0c 17          	movzx  ecx,BYTE PTR [rdi+rdx*1]
    655c:	0f b6 34 07          	movzx  esi,BYTE PTR [rdi+rax*1]
    6560:	40 88 34 17          	mov    BYTE PTR [rdi+rdx*1],sil
    6564:	48 ff c2             	inc    rdx
    6567:	88 0c 07             	mov    BYTE PTR [rdi+rax*1],cl
    656a:	48 ff c8             	dec    rax
    656d:	48 39 c2             	cmp    rdx,rax
    6570:	72 e6                	jb     6558 <strrev+0x28>
    6572:	c3                   	ret
    6573:	0f 1f 44 00 00       	nop    DWORD PTR [rax+rax*1+0x0]
    6578:	c3                   	ret
    6579:	0f 1f 80 00 00 00 00 	nop    DWORD PTR [rax+0x0]
    6580:	48 c7 c0 ff ff ff ff 	mov    rax,0xffffffffffffffff
    6587:	eb ca                	jmp    6553 <strrev+0x23>
    6589:	0f 1f 80 00 00 00 00 	nop    DWORD PTR [rax+0x0]

0000000000006590 <strcat>:
    6590:	80 3f 00             	cmp    BYTE PTR [rdi],0x0
    6593:	48 89 f8             	mov    rax,rdi
    6596:	74 30                	je     65c8 <strcat+0x38>
    6598:	31 d2                	xor    edx,edx
    659a:	66 0f 1f 44 00 00    	nop    WORD PTR [rax+rax*1+0x0]
    65a0:	48 ff c2             	inc    rdx
    65a3:	80 3c 10 00          	cmp    BYTE PTR [rax+rdx*1],0x0
    65a7:	75 f7                	jne    65a0 <strcat+0x10>
    65a9:	48 01 c2             	add    rdx,rax
    65ac:	eb 0a                	jmp    65b8 <strcat+0x28>
    65ae:	66 90                	xchg   ax,ax
    65b0:	88 0a                	mov    BYTE PTR [rdx],cl
    65b2:	48 ff c2             	inc    rdx
    65b5:	48 ff c6             	inc    rsi
    65b8:	0f b6 0e             	movzx  ecx,BYTE PTR [rsi]
    65bb:	84 c9                	test   cl,cl
    65bd:	75 f1                	jne    65b0 <strcat+0x20>
    65bf:	c6 02 00             	mov    BYTE PTR [rdx],0x0
    65c2:	c3                   	ret
    65c3:	0f 1f 44 00 00       	nop    DWORD PTR [rax+rax*1+0x0]
    65c8:	48 89 fa             	mov    rdx,rdi
    65cb:	eb eb                	jmp    65b8 <strcat+0x28>
    65cd:	0f 1f 00             	nop    DWORD PTR [rax]

00000000000065d0 <syscall_entry_64>:
    65d0:	51                   	push   rcx
    65d1:	41 53                	push   r11
    65d3:	ff 14 c5 e0 97 00 00 	call   QWORD PTR [rax*8+0x97e0]
    65da:	41 5b                	pop    r11
    65dc:	59                   	pop    rcx
    65dd:	c3                   	ret

00000000000065de <syscall>:
    65de:	48 89 f8             	mov    rax,rdi
    65e1:	48 89 f7             	mov    rdi,rsi
    65e4:	48 89 d6             	mov    rsi,rdx
    65e7:	48 89 ca             	mov    rdx,rcx
    65ea:	4c 89 c1             	mov    rcx,r8
    65ed:	4d 89 c8             	mov    r8,r9
    65f0:	0f 05                	syscall
    65f2:	c3                   	ret
    65f3:	66 2e 0f 1f 84 00 00 	cs nop WORD PTR [rax+rax*1+0x0]
    65fa:	00 00 00 
    65fd:	0f 1f 00             	nop    DWORD PTR [rax]

0000000000006600 <x64_syscall_debug0>:
    6600:	41 57                	push   r15
    6602:	49 bb 90 31 00 00 00 	movabs r11,0x3190
    6609:	00 00 00 
    660c:	4c 8d 3d ed ff ff ff 	lea    r15,[rip+0xffffffffffffffed]        # 6600 <x64_syscall_debug0>
    6613:	48 b8 7b f0 ff ff ff 	movabs rax,0xfffffffffffff07b
    661a:	ff ff ff 
    661d:	4d 01 df             	add    r15,r11
    6620:	48 ba c1 c1 ff ff ff 	movabs rdx,0xffffffffffffc1c1
    6627:	ff ff ff 
    662a:	49 8d 3c 07          	lea    rdi,[r15+rax*1]
    662e:	4c 01 fa             	add    rdx,r15
    6631:	31 c0                	xor    eax,eax
    6633:	ff d2                	call   rdx
    6635:	b8 09 03 00 00       	mov    eax,0x309
    663a:	41 5f                	pop    r15
    663c:	c3                   	ret
    663d:	0f 1f 00             	nop    DWORD PTR [rax]

0000000000006640 <x64_syscall_debug1>:
    6640:	41 57                	push   r15
    6642:	49 bb 50 31 00 00 00 	movabs r11,0x3150
    6649:	00 00 00 
    664c:	4c 8d 3d ed ff ff ff 	lea    r15,[rip+0xffffffffffffffed]        # 6640 <x64_syscall_debug1>
    6653:	48 b8 8a f0 ff ff ff 	movabs rax,0xfffffffffffff08a
    665a:	ff ff ff 
    665d:	4d 01 df             	add    r15,r11
    6660:	48 ba c1 c1 ff ff ff 	movabs rdx,0xffffffffffffc1c1
    6667:	ff ff ff 
    666a:	49 8d 3c 07          	lea    rdi,[r15+rax*1]
    666e:	4c 01 fa             	add    rdx,r15
    6671:	31 c0                	xor    eax,eax
    6673:	ff d2                	call   rdx
    6675:	31 c0                	xor    eax,eax
    6677:	41 5f                	pop    r15
    6679:	c3                   	ret
    667a:	66 0f 1f 44 00 00    	nop    WORD PTR [rax+rax*1+0x0]

0000000000006680 <x64_syscall_debug2>:
    6680:	41 57                	push   r15
    6682:	49 bb 10 31 00 00 00 	movabs r11,0x3110
    6689:	00 00 00 
    668c:	4c 8d 3d ed ff ff ff 	lea    r15,[rip+0xffffffffffffffed]        # 6680 <x64_syscall_debug2>
    6693:	48 b8 99 f0 ff ff ff 	movabs rax,0xfffffffffffff099
    669a:	ff ff ff 
    669d:	4d 01 df             	add    r15,r11
    66a0:	48 ba c1 c1 ff ff ff 	movabs rdx,0xffffffffffffc1c1
    66a7:	ff ff ff 
    66aa:	49 8d 3c 07          	lea    rdi,[r15+rax*1]
    66ae:	4c 01 fa             	add    rdx,r15
    66b1:	31 c0                	xor    eax,eax
    66b3:	ff d2                	call   rdx
    66b5:	31 c0                	xor    eax,eax
    66b7:	41 5f                	pop    r15
    66b9:	c3                   	ret
    66ba:	66 0f 1f 44 00 00    	nop    WORD PTR [rax+rax*1+0x0]

00000000000066c0 <x64_syscall_debug3>:
    66c0:	41 57                	push   r15
    66c2:	49 bb d0 30 00 00 00 	movabs r11,0x30d0
    66c9:	00 00 00 
    66cc:	4c 8d 3d ed ff ff ff 	lea    r15,[rip+0xffffffffffffffed]        # 66c0 <x64_syscall_debug3>
    66d3:	48 b8 99 f0 ff ff ff 	movabs rax,0xfffffffffffff099
    66da:	ff ff ff 
    66dd:	4d 01 df             	add    r15,r11
    66e0:	48 ba c1 c1 ff ff ff 	movabs rdx,0xffffffffffffc1c1
    66e7:	ff ff ff 
    66ea:	49 8d 3c 07          	lea    rdi,[r15+rax*1]
    66ee:	4c 01 fa             	add    rdx,r15
    66f1:	31 c0                	xor    eax,eax
    66f3:	ff d2                	call   rdx
    66f5:	31 c0                	xor    eax,eax
    66f7:	41 5f                	pop    r15
    66f9:	c3                   	ret
    66fa:	66 0f 1f 44 00 00    	nop    WORD PTR [rax+rax*1+0x0]

0000000000006700 <syscall_setup>:
    6700:	41 57                	push   r15
    6702:	49 bb 90 30 00 00 00 	movabs r11,0x3090
    6709:	00 00 00 
    670c:	4c 8d 3d ed ff ff ff 	lea    r15,[rip+0xffffffffffffffed]        # 6700 <syscall_setup>
    6713:	48 b8 a8 f0 ff ff ff 	movabs rax,0xfffffffffffff0a8
    671a:	ff ff ff 
    671d:	4d 01 df             	add    r15,r11
    6720:	49 8d 3c 07          	lea    rdi,[r15+rax*1]
    6724:	31 c0                	xor    eax,eax
    6726:	55                   	push   rbp
    6727:	48 bd c1 c1 ff ff ff 	movabs rbp,0xffffffffffffc1c1
    672e:	ff ff ff 
    6731:	4c 01 fd             	add    rbp,r15
    6734:	53                   	push   rbx
    6735:	48 bb 91 a1 ff ff ff 	movabs rbx,0xffffffffffffa191
    673c:	ff ff ff 
    673f:	4c 01 fb             	add    rbx,r15
    6742:	ff d5                	call   rbp
    6744:	48 b8 85 a1 ff ff ff 	movabs rax,0xffffffffffffa185
    674b:	ff ff ff 
    674e:	bf 80 00 00 c0       	mov    edi,0xc0000080
    6753:	4c 01 f8             	add    rax,r15
    6756:	ff d0                	call   rax
    6758:	bf 80 00 00 c0       	mov    edi,0xc0000080
    675d:	89 c6                	mov    esi,eax
    675f:	83 ce 01             	or     esi,0x1
    6762:	ff d3                	call   rbx
    6764:	48 be 00 00 00 00 08 	movabs rsi,0x8000800000000
    676b:	00 08 00 
    676e:	bf 81 00 00 c0       	mov    edi,0xc0000081
    6773:	ff d3                	call   rbx
    6775:	48 b8 e0 ff ff ff ff 	movabs rax,0xffffffffffffffe0
    677c:	ff ff ff 
    677f:	bf 82 00 00 c0       	mov    edi,0xc0000082
    6784:	49 8b 34 07          	mov    rsi,QWORD PTR [r15+rax*1]
    6788:	ff d3                	call   rbx
    678a:	31 f6                	xor    esi,esi
    678c:	bf 84 00 00 c0       	mov    edi,0xc0000084
    6791:	ff d3                	call   rbx
    6793:	48 b8 84 e3 ff ff ff 	movabs rax,0xffffffffffffe384
    679a:	ff ff ff 
    679d:	49 8d 3c 07          	lea    rdi,[r15+rax*1]
    67a1:	31 c0                	xor    eax,eax
    67a3:	ff d5                	call   rbp
    67a5:	5b                   	pop    rbx
    67a6:	31 c0                	xor    eax,eax
    67a8:	5d                   	pop    rbp
    67a9:	41 5f                	pop    r15
    67ab:	c3                   	ret
    67ac:	0f 1f 40 00          	nop    DWORD PTR [rax+0x0]

00000000000067b0 <time_get>:
    67b0:	41 54                	push   r12
    67b2:	49 bb e0 2f 00 00 00 	movabs r11,0x2fe0
    67b9:	00 00 00 
    67bc:	48 b8 d0 ff ff ff ff 	movabs rax,0xffffffffffffffd0
    67c3:	ff ff ff 
    67c6:	49 bc a0 2a 00 00 00 	movabs r12,0x2aa0
    67cd:	00 00 00 
    67d0:	31 d2                	xor    edx,edx
    67d2:	55                   	push   rbp
    67d3:	48 89 fd             	mov    rbp,rdi
    67d6:	53                   	push   rbx
    67d7:	48 8d 1d d2 ff ff ff 	lea    rbx,[rip+0xffffffffffffffd2]        # 67b0 <time_get>
    67de:	4c 01 db             	add    rbx,r11
    67e1:	48 8b 04 03          	mov    rax,QWORD PTR [rbx+rax*1]
    67e5:	4a 8d 0c 23          	lea    rcx,[rbx+r12*1]
    67e9:	48 83 ec 20          	sub    rsp,0x20
    67ed:	48 8b 00             	mov    rax,QWORD PTR [rax]
    67f0:	ff 50 48             	call   QWORD PTR [rax+0x48]
    67f3:	42 0f b7 04 23       	movzx  eax,WORD PTR [rbx+r12*1]
    67f8:	48 83 c4 20          	add    rsp,0x20
    67fc:	66 89 45 00          	mov    WORD PTR [rbp+0x0],ax
    6800:	42 0f b6 44 23 02    	movzx  eax,BYTE PTR [rbx+r12*1+0x2]
    6806:	88 45 02             	mov    BYTE PTR [rbp+0x2],al
    6809:	42 0f b6 44 23 03    	movzx  eax,BYTE PTR [rbx+r12*1+0x3]
    680f:	88 45 03             	mov    BYTE PTR [rbp+0x3],al
    6812:	42 0f b6 44 23 04    	movzx  eax,BYTE PTR [rbx+r12*1+0x4]
    6818:	88 45 04             	mov    BYTE PTR [rbp+0x4],al
    681b:	42 0f b6 44 23 05    	movzx  eax,BYTE PTR [rbx+r12*1+0x5]
    6821:	88 45 05             	mov    BYTE PTR [rbp+0x5],al
    6824:	42 0f b6 44 23 06    	movzx  eax,BYTE PTR [rbx+r12*1+0x6]
    682a:	88 45 06             	mov    BYTE PTR [rbp+0x6],al
    682d:	5b                   	pop    rbx
    682e:	5d                   	pop    rbp
    682f:	41 5c                	pop    r12
    6831:	c3                   	ret
    6832:	66 66 2e 0f 1f 84 00 	data16 cs nop WORD PTR [rax+rax*1+0x0]
    6839:	00 00 00 00 
    683d:	0f 1f 00             	nop    DWORD PTR [rax]

0000000000006840 <time_tick>:
    6840:	48 8d 05 f9 ff ff ff 	lea    rax,[rip+0xfffffffffffffff9]        # 6840 <time_tick>
    6847:	49 bb 50 2f 00 00 00 	movabs r11,0x2f50
    684e:	00 00 00 
    6851:	48 ba 90 2a 00 00 00 	movabs rdx,0x2a90
    6858:	00 00 00 
    685b:	4c 01 d8             	add    rax,r11
    685e:	48 ff 04 02          	inc    QWORD PTR [rdx+rax*1]
    6862:	c3                   	ret
    6863:	66 66 2e 0f 1f 84 00 	data16 cs nop WORD PTR [rax+rax*1+0x0]
    686a:	00 00 00 00 
    686e:	66 90                	xchg   ax,ax

0000000000006870 <time_sleep>:
    6870:	48 8d 0d f9 ff ff ff 	lea    rcx,[rip+0xfffffffffffffff9]        # 6870 <time_sleep>
    6877:	49 bb 20 2f 00 00 00 	movabs r11,0x2f20
    687e:	00 00 00 
    6881:	48 83 ec 10          	sub    rsp,0x10
    6885:	48 be 90 2a 00 00 00 	movabs rsi,0x2a90
    688c:	00 00 00 
    688f:	4c 01 d9             	add    rcx,r11
    6892:	48 8b 04 0e          	mov    rax,QWORD PTR [rsi+rcx*1]
    6896:	48 89 44 24 08       	mov    QWORD PTR [rsp+0x8],rax
    689b:	48 8b 54 24 08       	mov    rdx,QWORD PTR [rsp+0x8]
    68a0:	48 29 d0             	sub    rax,rdx
    68a3:	48 39 f8             	cmp    rax,rdi
    68a6:	73 1a                	jae    68c2 <time_sleep+0x52>
    68a8:	0f 1f 84 00 00 00 00 	nop    DWORD PTR [rax+rax*1+0x0]
    68af:	00 
    68b0:	90                   	nop
    68b1:	48 8b 54 24 08       	mov    rdx,QWORD PTR [rsp+0x8]
    68b6:	48 8b 04 0e          	mov    rax,QWORD PTR [rsi+rcx*1]
    68ba:	48 29 d0             	sub    rax,rdx
    68bd:	48 39 f8             	cmp    rax,rdi
    68c0:	72 ee                	jb     68b0 <time_sleep+0x40>
    68c2:	48 83 c4 10          	add    rsp,0x10
    68c6:	c3                   	ret
    68c7:	66 0f 1f 84 00 00 00 	nop    WORD PTR [rax+rax*1+0x0]
    68ce:	00 00 

00000000000068d0 <time_ms_boot>:
    68d0:	49 bb c0 2e 00 00 00 	movabs r11,0x2ec0
    68d7:	00 00 00 
    68da:	48 8d 05 ef ff ff ff 	lea    rax,[rip+0xffffffffffffffef]        # 68d0 <time_ms_boot>
    68e1:	48 ba 90 2a 00 00 00 	movabs rdx,0x2a90
    68e8:	00 00 00 
    68eb:	4c 01 d8             	add    rax,r11
    68ee:	48 8b 04 10          	mov    rax,QWORD PTR [rax+rdx*1]
    68f2:	c3                   	ret
    68f3:	66 66 2e 0f 1f 84 00 	data16 cs nop WORD PTR [rax+rax*1+0x0]
    68fa:	00 00 00 00 
    68fe:	66 90                	xchg   ax,ax

0000000000006900 <time_init>:
    6900:	48 8d 05 f9 ff ff ff 	lea    rax,[rip+0xfffffffffffffff9]        # 6900 <time_init>
    6907:	49 bb 90 2e 00 00 00 	movabs r11,0x2e90
    690e:	00 00 00 
    6911:	48 ba 90 2a 00 00 00 	movabs rdx,0x2a90
    6918:	00 00 00 
    691b:	4c 01 d8             	add    rax,r11
    691e:	48 c7 04 10 00 00 00 	mov    QWORD PTR [rax+rdx*1],0x0
    6925:	00 
    6926:	c3                   	ret
    6927:	66 0f 1f 84 00 00 00 	nop    WORD PTR [rax+rax*1+0x0]
    692e:	00 00 

0000000000006930 <__va_save>:
    6930:	48 89 37             	mov    QWORD PTR [rdi],rsi
    6933:	48 89 57 08          	mov    QWORD PTR [rdi+0x8],rdx
    6937:	48 89 4f 10          	mov    QWORD PTR [rdi+0x10],rcx
    693b:	4c 89 47 18          	mov    QWORD PTR [rdi+0x18],r8
    693f:	4c 89 4f 20          	mov    QWORD PTR [rdi+0x20],r9
    6943:	4c 8b 55 10          	mov    r10,QWORD PTR [rbp+0x10]
    6947:	4c 89 57 28          	mov    QWORD PTR [rdi+0x28],r10
    694b:	4c 8b 55 18          	mov    r10,QWORD PTR [rbp+0x18]
    694f:	4c 89 57 30          	mov    QWORD PTR [rdi+0x30],r10
    6953:	4c 8b 55 20          	mov    r10,QWORD PTR [rbp+0x20]
    6957:	4c 89 57 38          	mov    QWORD PTR [rdi+0x38],r10
    695b:	48 c7 47 40 00 00 00 	mov    QWORD PTR [rdi+0x40],0x0
    6962:	00 
    6963:	c3                   	ret

0000000000006964 <__va_next>:
    6964:	4c 8b 57 40          	mov    r10,QWORD PTR [rdi+0x40]
    6968:	48 ff 47 40          	inc    QWORD PTR [rdi+0x40]
    696c:	4a 8b 04 d7          	mov    rax,QWORD PTR [rdi+r10*8]
    6970:	c3                   	ret
    6971:	66 2e 0f 1f 84 00 00 	cs nop WORD PTR [rax+rax*1+0x0]
    6978:	00 00 00 
    697b:	0f 1f 44 00 00       	nop    DWORD PTR [rax+rax*1+0x0]

0000000000006980 <vtt_clear>:
    6980:	8b 47 04             	mov    eax,DWORD PTR [rdi+0x4]
    6983:	0f af 07             	imul   eax,DWORD PTR [rdi]
    6986:	89 c1                	mov    ecx,eax
    6988:	85 c0                	test   eax,eax
    698a:	74 20                	je     69ac <vtt_clear+0x2c>
    698c:	31 c0                	xor    eax,eax
    698e:	66 90                	xchg   ax,ax
    6990:	48 89 c2             	mov    rdx,rax
    6993:	f3 0f 6f 47 10       	movdqu xmm0,XMMWORD PTR [rdi+0x10]
    6998:	48 ff c0             	inc    rax
    699b:	48 c1 e2 04          	shl    rdx,0x4
    699f:	0f 11 84 17 98 00 00 	movups XMMWORD PTR [rdi+rdx*1+0x98],xmm0
    69a6:	00 
    69a7:	48 39 c8             	cmp    rax,rcx
    69aa:	75 e4                	jne    6990 <vtt_clear+0x10>
    69ac:	48 c7 47 08 00 00 00 	mov    QWORD PTR [rdi+0x8],0x0
    69b3:	00 
    69b4:	c3                   	ret
    69b5:	66 66 2e 0f 1f 84 00 	data16 cs nop WORD PTR [rax+rax*1+0x0]
    69bc:	00 00 00 00 

00000000000069c0 <vtt_newline>:
    69c0:	8b 47 04             	mov    eax,DWORD PTR [rdi+0x4]
    69c3:	8b 57 0c             	mov    edx,DWORD PTR [rdi+0xc]
    69c6:	53                   	push   rbx
    69c7:	48 89 fb             	mov    rbx,rdi
    69ca:	ff c8                	dec    eax
    69cc:	39 c2                	cmp    edx,eax
    69ce:	72 18                	jb     69e8 <vtt_newline+0x28>
    69d0:	be 01 00 00 00       	mov    esi,0x1
    69d5:	ff 57 50             	call   QWORD PTR [rdi+0x50]
    69d8:	c7 43 08 00 00 00 00 	mov    DWORD PTR [rbx+0x8],0x0
    69df:	5b                   	pop    rbx
    69e0:	c3                   	ret
    69e1:	0f 1f 80 00 00 00 00 	nop    DWORD PTR [rax+0x0]
    69e8:	ff c2                	inc    edx
    69ea:	89 57 0c             	mov    DWORD PTR [rdi+0xc],edx
    69ed:	c7 43 08 00 00 00 00 	mov    DWORD PTR [rbx+0x8],0x0
    69f4:	5b                   	pop    rbx
    69f5:	c3                   	ret
    69f6:	66 2e 0f 1f 84 00 00 	cs nop WORD PTR [rax+rax*1+0x0]
    69fd:	00 00 00 

0000000000006a00 <vtt_tab>:
    6a00:	8b 47 08             	mov    eax,DWORD PTR [rdi+0x8]
    6a03:	ba 08 00 00 00       	mov    edx,0x8
    6a08:	ff c0                	inc    eax
    6a0a:	83 e0 07             	and    eax,0x7
    6a0d:	29 c2                	sub    edx,eax
    6a0f:	83 fa 08             	cmp    edx,0x8
    6a12:	74 24                	je     6a38 <vtt_tab+0x38>
    6a14:	41 54                	push   r12
    6a16:	41 89 d4             	mov    r12d,edx
    6a19:	55                   	push   rbp
    6a1a:	48 89 fd             	mov    rbp,rdi
    6a1d:	53                   	push   rbx
    6a1e:	31 db                	xor    ebx,ebx
    6a20:	48 89 ef             	mov    rdi,rbp
    6a23:	48 ff c3             	inc    rbx
    6a26:	ff 55 58             	call   QWORD PTR [rbp+0x58]
    6a29:	49 39 dc             	cmp    r12,rbx
    6a2c:	75 f2                	jne    6a20 <vtt_tab+0x20>
    6a2e:	5b                   	pop    rbx
    6a2f:	5d                   	pop    rbp
    6a30:	41 5c                	pop    r12
    6a32:	c3                   	ret
    6a33:	0f 1f 44 00 00       	nop    DWORD PTR [rax+rax*1+0x0]
    6a38:	c3                   	ret
    6a39:	0f 1f 80 00 00 00 00 	nop    DWORD PTR [rax+0x0]

0000000000006a40 <vtt_delete>:
    6a40:	53                   	push   rbx
    6a41:	48 89 fb             	mov    rbx,rdi
    6a44:	ff 57 60             	call   QWORD PTR [rdi+0x60]
    6a47:	8b 43 0c             	mov    eax,DWORD PTR [rbx+0xc]
    6a4a:	f3 0f 6f 43 10       	movdqu xmm0,XMMWORD PTR [rbx+0x10]
    6a4f:	0f af 03             	imul   eax,DWORD PTR [rbx]
    6a52:	03 43 08             	add    eax,DWORD PTR [rbx+0x8]
    6a55:	48 c1 e0 04          	shl    rax,0x4
    6a59:	0f 11 84 18 98 00 00 	movups XMMWORD PTR [rax+rbx*1+0x98],xmm0
    6a60:	00 
    6a61:	5b                   	pop    rbx
    6a62:	c3                   	ret
    6a63:	66 66 2e 0f 1f 84 00 	data16 cs nop WORD PTR [rax+rax*1+0x0]
    6a6a:	00 00 00 00 
    6a6e:	66 90                	xchg   ax,ax

0000000000006a70 <vtt_scroll>:
    6a70:	41 57                	push   r15
    6a72:	48 89 fa             	mov    rdx,rdi
    6a75:	41 56                	push   r14
    6a77:	41 55                	push   r13
    6a79:	41 54                	push   r12
    6a7b:	55                   	push   rbp
    6a7c:	89 f5                	mov    ebp,esi
    6a7e:	53                   	push   rbx
    6a7f:	48 83 ec 18          	sub    rsp,0x18
    6a83:	44 8b 07             	mov    r8d,DWORD PTR [rdi]
    6a86:	4c 89 c6             	mov    rsi,r8
    6a89:	85 ed                	test   ebp,ebp
    6a8b:	0f 84 de 00 00 00    	je     6b6f <vtt_scroll+0xff>
    6a91:	8b 47 04             	mov    eax,DWORD PTR [rdi+0x4]
    6a94:	8d 58 ff             	lea    ebx,[rax-0x1]
    6a97:	83 f8 01             	cmp    eax,0x1
    6a9a:	0f 84 cf 00 00 00    	je     6b6f <vtt_scroll+0xff>
    6aa0:	4d 85 c0             	test   r8,r8
    6aa3:	0f 84 b7 00 00 00    	je     6b60 <vtt_scroll+0xf0>
    6aa9:	4d 89 c2             	mov    r10,r8
    6aac:	44 89 44 24 0c       	mov    DWORD PTR [rsp+0xc],r8d
    6ab1:	31 c9                	xor    ecx,ecx
    6ab3:	49 89 f9             	mov    r9,rdi
    6ab6:	49 f7 da             	neg    r10
    6ab9:	48 89 ce             	mov    rsi,rcx
    6abc:	41 89 c5             	mov    r13d,eax
    6abf:	49 c1 e2 04          	shl    r10,0x4
    6ac3:	4d 89 d4             	mov    r12,r10
    6ac6:	4e 8d 1c 17          	lea    r11,[rdi+r10*1]
    6aca:	49 f7 dc             	neg    r12
    6acd:	0f 1f 00             	nop    DWORD PTR [rax]
    6ad0:	4c 89 e0             	mov    rax,r12
    6ad3:	31 d2                	xor    edx,edx
    6ad5:	31 c9                	xor    ecx,ecx
    6ad7:	66 0f 1f 84 00 00 00 	nop    WORD PTR [rax+rax*1+0x0]
    6ade:	00 00 
    6ae0:	48 ff c1             	inc    rcx
    6ae3:	4a 8d 3c 18          	lea    rdi,[rax+r11*1]
    6ae7:	45 31 f6             	xor    r14d,r14d
    6aea:	66 0f 1f 44 00 00    	nop    WORD PTR [rax+rax*1+0x0]
    6af0:	4c 8d 3c 17          	lea    r15,[rdi+rdx*1]
    6af4:	49 ff c6             	inc    r14
    6af7:	48 83 c7 10          	add    rdi,0x10
    6afb:	f3 41 0f 6f 84 07 98 	movdqu xmm0,XMMWORD PTR [r15+rax*1+0x98]
    6b02:	00 00 00 
    6b05:	0f 11 87 88 00 00 00 	movups XMMWORD PTR [rdi+0x88],xmm0
    6b0c:	c6 87 94 00 00 00 01 	mov    BYTE PTR [rdi+0x94],0x1
    6b13:	4d 39 f0             	cmp    r8,r14
    6b16:	75 d8                	jne    6af0 <vtt_scroll+0x80>
    6b18:	4c 01 d2             	add    rdx,r10
    6b1b:	4c 29 d0             	sub    rax,r10
    6b1e:	48 39 d9             	cmp    rcx,rbx
    6b21:	75 bd                	jne    6ae0 <vtt_scroll+0x70>
    6b23:	48 ff c6             	inc    rsi
    6b26:	48 39 ee             	cmp    rsi,rbp
    6b29:	75 a5                	jne    6ad0 <vtt_scroll+0x60>
    6b2b:	8b 74 24 0c          	mov    esi,DWORD PTR [rsp+0xc]
    6b2f:	4c 89 ca             	mov    rdx,r9
    6b32:	44 89 e8             	mov    eax,r13d
    6b35:	ff c8                	dec    eax
    6b37:	31 c9                	xor    ecx,ecx
    6b39:	0f af c6             	imul   eax,esi
    6b3c:	48 c1 e0 04          	shl    rax,0x4
    6b40:	48 01 d0             	add    rax,rdx
    6b43:	0f 1f 44 00 00       	nop    DWORD PTR [rax+rax*1+0x0]
    6b48:	f3 0f 6f 4a 10       	movdqu xmm1,XMMWORD PTR [rdx+0x10]
    6b4d:	48 ff c1             	inc    rcx
    6b50:	48 83 c0 10          	add    rax,0x10
    6b54:	0f 11 88 88 00 00 00 	movups XMMWORD PTR [rax+0x88],xmm1
    6b5b:	49 39 c8             	cmp    r8,rcx
    6b5e:	75 e8                	jne    6b48 <vtt_scroll+0xd8>
    6b60:	48 83 c4 18          	add    rsp,0x18
    6b64:	5b                   	pop    rbx
    6b65:	5d                   	pop    rbp
    6b66:	41 5c                	pop    r12
    6b68:	41 5d                	pop    r13
    6b6a:	41 5e                	pop    r14
    6b6c:	41 5f                	pop    r15
    6b6e:	c3                   	ret
    6b6f:	85 f6                	test   esi,esi
    6b71:	74 ed                	je     6b60 <vtt_scroll+0xf0>
    6b73:	8b 42 04             	mov    eax,DWORD PTR [rdx+0x4]
    6b76:	eb bd                	jmp    6b35 <vtt_scroll+0xc5>
    6b78:	0f 1f 84 00 00 00 00 	nop    DWORD PTR [rax+rax*1+0x0]
    6b7f:	00 

0000000000006b80 <vtt_setcurpos>:
    6b80:	39 37                	cmp    DWORD PTR [rdi],esi
    6b82:	72 14                	jb     6b98 <vtt_setcurpos+0x18>
    6b84:	39 57 04             	cmp    DWORD PTR [rdi+0x4],edx
    6b87:	72 0f                	jb     6b98 <vtt_setcurpos+0x18>
    6b89:	66 0f 6e c6          	movd   xmm0,esi
    6b8d:	66 0f 3a 22 c2 01    	pinsrd xmm0,edx,0x1
    6b93:	66 0f d6 47 08       	movq   QWORD PTR [rdi+0x8],xmm0
    6b98:	c3                   	ret
    6b99:	0f 1f 80 00 00 00 00 	nop    DWORD PTR [rax+0x0]

0000000000006ba0 <vtt_setcur>:
    6ba0:	89 f0                	mov    eax,esi
    6ba2:	40 0f b6 d6          	movzx  edx,sil
    6ba6:	88 c6                	mov    dh,al
    6ba8:	66 89 57 28          	mov    WORD PTR [rdi+0x28],dx
    6bac:	c3                   	ret
    6bad:	0f 1f 00             	nop    DWORD PTR [rax]

0000000000006bb0 <vtt_setfgcol>:
    6bb0:	0f b6 c1             	movzx  eax,cl
    6bb3:	40 88 77 22          	mov    BYTE PTR [rdi+0x22],sil
    6bb7:	88 d4                	mov    ah,dl
    6bb9:	66 89 47 20          	mov    WORD PTR [rdi+0x20],ax
    6bbd:	c3                   	ret
    6bbe:	66 90                	xchg   ax,ax

0000000000006bc0 <vtt_setbgcol>:
    6bc0:	0f b6 c1             	movzx  eax,cl
    6bc3:	40 88 77 26          	mov    BYTE PTR [rdi+0x26],sil
    6bc7:	88 d4                	mov    ah,dl
    6bc9:	66 89 47 24          	mov    WORD PTR [rdi+0x24],ax
    6bcd:	c3                   	ret
    6bce:	66 90                	xchg   ax,ax

0000000000006bd0 <vtt_resetcol>:
    6bd0:	8b 47 14             	mov    eax,DWORD PTR [rdi+0x14]
    6bd3:	89 47 20             	mov    DWORD PTR [rdi+0x20],eax
    6bd6:	8b 47 18             	mov    eax,DWORD PTR [rdi+0x18]
    6bd9:	89 47 24             	mov    DWORD PTR [rdi+0x24],eax
    6bdc:	c3                   	ret
    6bdd:	0f 1f 00             	nop    DWORD PTR [rax]

0000000000006be0 <vtt_forward>:
    6be0:	53                   	push   rbx
    6be1:	48 89 fb             	mov    rbx,rdi
    6be4:	8b 07                	mov    eax,DWORD PTR [rdi]
    6be6:	8b 57 08             	mov    edx,DWORD PTR [rdi+0x8]
    6be9:	ff c8                	dec    eax
    6beb:	8d 4a 01             	lea    ecx,[rdx+0x1]
    6bee:	39 c2                	cmp    edx,eax
    6bf0:	72 05                	jb     6bf7 <vtt_forward+0x17>
    6bf2:	ff 57 38             	call   QWORD PTR [rdi+0x38]
    6bf5:	31 c9                	xor    ecx,ecx
    6bf7:	8b 43 04             	mov    eax,DWORD PTR [rbx+0x4]
    6bfa:	89 4b 08             	mov    DWORD PTR [rbx+0x8],ecx
    6bfd:	39 43 0c             	cmp    DWORD PTR [rbx+0xc],eax
    6c00:	72 0e                	jb     6c10 <vtt_forward+0x30>
    6c02:	be 01 00 00 00       	mov    esi,0x1
    6c07:	48 89 df             	mov    rdi,rbx
    6c0a:	ff 53 50             	call   QWORD PTR [rbx+0x50]
    6c0d:	ff 4b 0c             	dec    DWORD PTR [rbx+0xc]
    6c10:	5b                   	pop    rbx
    6c11:	c3                   	ret
    6c12:	66 66 2e 0f 1f 84 00 	data16 cs nop WORD PTR [rax+rax*1+0x0]
    6c19:	00 00 00 00 
    6c1d:	0f 1f 00             	nop    DWORD PTR [rax]

0000000000006c20 <vtt_backward>:
    6c20:	8b 47 08             	mov    eax,DWORD PTR [rdi+0x8]
    6c23:	48 8d 15 f6 ff ff ff 	lea    rdx,[rip+0xfffffffffffffff6]        # 6c20 <vtt_backward>
    6c2a:	49 bb 70 2b 00 00 00 	movabs r11,0x2b70
    6c31:	00 00 00 
    6c34:	4c 01 da             	add    rdx,r11
    6c37:	85 c0                	test   eax,eax
    6c39:	75 35                	jne    6c70 <vtt_backward+0x50>
    6c3b:	8b 47 0c             	mov    eax,DWORD PTR [rdi+0xc]
    6c3e:	83 f8 01             	cmp    eax,0x1
    6c41:	76 32                	jbe    6c75 <vtt_backward+0x55>
    6c43:	66 0f 6e 07          	movd   xmm0,DWORD PTR [rdi]
    6c47:	66 0f 3a 22 c0 01    	pinsrd xmm0,eax,0x1
    6c4d:	48 b8 68 e5 ff ff ff 	movabs rax,0xffffffffffffe568
    6c54:	ff ff ff 
    6c57:	f3 0f 7e 0c 02       	movq   xmm1,QWORD PTR [rdx+rax*1]
    6c5c:	66 0f fe c1          	paddd  xmm0,xmm1
    6c60:	66 0f d6 47 08       	movq   QWORD PTR [rdi+0x8],xmm0
    6c65:	c3                   	ret
    6c66:	66 2e 0f 1f 84 00 00 	cs nop WORD PTR [rax+rax*1+0x0]
    6c6d:	00 00 00 
    6c70:	ff c8                	dec    eax
    6c72:	89 47 08             	mov    DWORD PTR [rdi+0x8],eax
    6c75:	c3                   	ret
    6c76:	66 2e 0f 1f 84 00 00 	cs nop WORD PTR [rax+rax*1+0x0]
    6c7d:	00 00 00 

0000000000006c80 <vtt_setup>:
    6c80:	41 57                	push   r15
    6c82:	49 bb 10 2b 00 00 00 	movabs r11,0x2b10
    6c89:	00 00 00 
    6c8c:	4c 8d 3d ed ff ff ff 	lea    r15,[rip+0xffffffffffffffed]        # 6c80 <vtt_setup>
    6c93:	89 f2                	mov    edx,esi
    6c95:	4d 01 df             	add    r15,r11
    6c98:	48 be f0 d1 ff ff ff 	movabs rsi,0xffffffffffffd1f0
    6c9f:	ff ff ff 
    6ca2:	48 b8 30 d2 ff ff ff 	movabs rax,0xffffffffffffd230
    6ca9:	ff ff ff 
    6cac:	89 f9                	mov    ecx,edi
    6cae:	4c 01 fe             	add    rsi,r15
    6cb1:	4c 01 f8             	add    rax,r15
    6cb4:	48 bf c0 2a 00 00 00 	movabs rdi,0x2ac0
    6cbb:	00 00 00 
    6cbe:	41 56                	push   r14
    6cc0:	66 48 0f 6e f6       	movq   xmm6,rsi
    6cc5:	48 be 70 d2 ff ff ff 	movabs rsi,0xffffffffffffd270
    6ccc:	ff ff ff 
    6ccf:	66 48 0f 3a 22 f0 01 	pinsrq xmm6,rax,0x1
    6cd6:	4c 01 fe             	add    rsi,r15
    6cd9:	48 b8 b0 d2 ff ff ff 	movabs rax,0xffffffffffffd2b0
    6ce0:	ff ff ff 
    6ce3:	4c 01 f8             	add    rax,r15
    6ce6:	66 48 0f 6e fe       	movq   xmm7,rsi
    6ceb:	48 be e0 d2 ff ff ff 	movabs rsi,0xffffffffffffd2e0
    6cf2:	ff ff ff 
    6cf5:	41 55                	push   r13
    6cf7:	66 48 0f 3a 22 f8 01 	pinsrq xmm7,rax,0x1
    6cfe:	4c 01 fe             	add    rsi,r15
    6d01:	48 b8 50 d4 ff ff ff 	movabs rax,0xffffffffffffd450
    6d08:	ff ff ff 
    6d0b:	4c 01 f8             	add    rax,r15
    6d0e:	41 54                	push   r12
    6d10:	55                   	push   rbp
    6d11:	48 bd d0 2a 00 00 00 	movabs rbp,0x2ad0
    6d18:	00 00 00 
    6d1b:	53                   	push   rbx
    6d1c:	48 81 ec 98 00 00 00 	sub    rsp,0x98
    6d23:	0f 29 74 24 50       	movaps XMMWORD PTR [rsp+0x50],xmm6
    6d28:	66 48 0f 6e f6       	movq   xmm6,rsi
    6d2d:	48 be 90 d4 ff ff ff 	movabs rsi,0xffffffffffffd490
    6d34:	ff ff ff 
    6d37:	4c 01 fe             	add    rsi,r15
    6d3a:	66 48 0f 3a 22 f0 01 	pinsrq xmm6,rax,0x1
    6d41:	48 b8 f0 d3 ff ff ff 	movabs rax,0xffffffffffffd3f0
    6d48:	ff ff ff 
    6d4b:	0f 29 7c 24 40       	movaps XMMWORD PTR [rsp+0x40],xmm7
    6d50:	4c 01 f8             	add    rax,r15
    6d53:	66 48 0f 6e fe       	movq   xmm7,rsi
    6d58:	48 be 10 d4 ff ff ff 	movabs rsi,0xffffffffffffd410
    6d5f:	ff ff ff 
    6d62:	0f 29 74 24 30       	movaps XMMWORD PTR [rsp+0x30],xmm6
    6d67:	4c 01 fe             	add    rsi,r15
    6d6a:	66 48 0f 3a 22 f8 01 	pinsrq xmm7,rax,0x1
    6d71:	48 b8 20 d4 ff ff ff 	movabs rax,0xffffffffffffd420
    6d78:	ff ff ff 
    6d7b:	4c 01 f8             	add    rax,r15
    6d7e:	66 48 0f 6e c6       	movq   xmm0,rsi
    6d83:	48 be 30 d4 ff ff ff 	movabs rsi,0xffffffffffffd430
    6d8a:	ff ff ff 
    6d8d:	0f 29 7c 24 20       	movaps XMMWORD PTR [rsp+0x20],xmm7
    6d92:	4c 01 fe             	add    rsi,r15
    6d95:	66 48 0f 3a 22 c0 01 	pinsrq xmm0,rax,0x1
    6d9c:	48 b8 40 d4 ff ff ff 	movabs rax,0xffffffffffffd440
    6da3:	ff ff ff 
    6da6:	4c 01 f8             	add    rax,r15
    6da9:	66 48 0f 6e ce       	movq   xmm1,rsi
    6dae:	0f 29 44 24 10       	movaps XMMWORD PTR [rsp+0x10],xmm0
    6db3:	66 48 0f 3a 22 c8 01 	pinsrq xmm1,rax,0x1
    6dba:	48 b8 d0 ff ff ff ff 	movabs rax,0xffffffffffffffd0
    6dc1:	ff ff ff 
    6dc4:	48 89 44 24 78       	mov    QWORD PTR [rsp+0x78],rax
    6dc9:	4a 8b 04 38          	mov    rax,QWORD PTR [rax+r15*1]
    6dcd:	0f 29 0c 24          	movaps XMMWORD PTR [rsp],xmm1
    6dd1:	48 8b 30             	mov    rsi,QWORD PTR [rax]
    6dd4:	48 b8 c4 2a 00 00 00 	movabs rax,0x2ac4
    6ddb:	00 00 00 
    6dde:	8b 1e                	mov    ebx,DWORD PTR [rsi]
    6de0:	41 89 1c 07          	mov    DWORD PTR [r15+rax*1],ebx
    6de4:	8b 46 04             	mov    eax,DWORD PTR [rsi+0x4]
    6de7:	41 89 04 3f          	mov    DWORD PTR [r15+rdi*1],eax
    6deb:	bf cd cc cc cc       	mov    edi,0xcccccccd
    6df0:	48 0f af df          	imul   rbx,rdi
    6df4:	89 cf                	mov    edi,ecx
    6df6:	48 c1 eb 23          	shr    rbx,0x23
    6dfa:	39 cb                	cmp    ebx,ecx
    6dfc:	0f 46 fb             	cmovbe edi,ebx
    6dff:	85 c9                	test   ecx,ecx
    6e01:	89 d1                	mov    ecx,edx
    6e03:	0f 45 df             	cmovne ebx,edi
    6e06:	48 69 c0 39 8e e3 38 	imul   rax,rax,0x38e38e39
    6e0d:	66 0f 6e d3          	movd   xmm2,ebx
    6e11:	4a 8d 5c 3d 00       	lea    rbx,[rbp+r15*1+0x0]
    6e16:	48 c1 e8 22          	shr    rax,0x22
    6e1a:	48 89 9c 24 88 00 00 	mov    QWORD PTR [rsp+0x88],rbx
    6e21:	00 
    6e22:	4c 8d b3 c8 71 08 00 	lea    r14,[rbx+0x871c8]
    6e29:	39 d0                	cmp    eax,edx
    6e2b:	0f 46 c8             	cmovbe ecx,eax
    6e2e:	85 d2                	test   edx,edx
    6e30:	48 8b 56 08          	mov    rdx,QWORD PTR [rsi+0x8]
    6e34:	0f 45 c1             	cmovne eax,ecx
    6e37:	48 b9 e0 ae ff ff ff 	movabs rcx,0xffffffffffffaee0
    6e3e:	ff ff ff 
    6e41:	48 89 8c 24 80 00 00 	mov    QWORD PTR [rsp+0x80],rcx
    6e48:	00 
    6e49:	66 0f 3a 22 d0 01    	pinsrd xmm2,eax,0x1
    6e4f:	48 b8 b8 2a 00 00 00 	movabs rax,0x2ab8
    6e56:	00 00 00 
    6e59:	49 89 14 07          	mov    QWORD PTR [r15+rax*1],rdx
    6e5d:	48 b8 e8 f0 ff ff ff 	movabs rax,0xfffffffffffff0e8
    6e64:	ff ff ff 
    6e67:	46 0f b7 2c 38       	movzx  r13d,WORD PTR [rax+r15*1]
    6e6c:	48 b8 ea f0 ff ff ff 	movabs rax,0xfffffffffffff0ea
    6e73:	ff ff ff 
    6e76:	66 0f d6 54 24 60    	movq   QWORD PTR [rsp+0x60],xmm2
    6e7c:	46 0f b7 24 38       	movzx  r12d,WORD PTR [rax+r15*1]
    6e81:	48 b8 f8 ff ff ff ff 	movabs rax,0xfffffffffffffff8
    6e88:	ff ff ff 
    6e8b:	4a 8b 04 38          	mov    rax,QWORD PTR [rax+r15*1]
    6e8f:	48 89 44 24 68       	mov    QWORD PTR [rsp+0x68],rax
    6e94:	4a 8d 04 39          	lea    rax,[rcx+r15*1]
    6e98:	48 89 44 24 70       	mov    QWORD PTR [rsp+0x70],rax
    6e9d:	48 8b 44 24 60       	mov    rax,QWORD PTR [rsp+0x60]
    6ea2:	66 44 89 63 14       	mov    WORD PTR [rbx+0x14],r12w
    6ea7:	48 8d bb 98 00 00 00 	lea    rdi,[rbx+0x98]
    6eae:	31 d2                	xor    edx,edx
    6eb0:	66 0f 6f 44 24 50    	movdqa xmm0,XMMWORD PTR [rsp+0x50]
    6eb6:	66 0f 6f 4c 24 40    	movdqa xmm1,XMMWORD PTR [rsp+0x40]
    6ebc:	c6 43 16 cc          	mov    BYTE PTR [rbx+0x16],0xcc
    6ec0:	be 00 d0 02 00       	mov    esi,0x2d000
    6ec5:	66 0f 6f 54 24 30    	movdqa xmm2,XMMWORD PTR [rsp+0x30]
    6ecb:	66 0f 6f 5c 24 20    	movdqa xmm3,XMMWORD PTR [rsp+0x20]
    6ed1:	48 89 03             	mov    QWORD PTR [rbx],rax
    6ed4:	31 c0                	xor    eax,eax
    6ed6:	66 0f 6f 64 24 10    	movdqa xmm4,XMMWORD PTR [rsp+0x10]
    6edc:	66 0f 6f 2c 24       	movdqa xmm5,XMMWORD PTR [rsp]
    6ee1:	66 89 43 18          	mov    WORD PTR [rbx+0x18],ax
    6ee5:	c6 43 1a 00          	mov    BYTE PTR [rbx+0x1a],0x0
    6ee9:	8b 43 14             	mov    eax,DWORD PTR [rbx+0x14]
    6eec:	48 c7 43 08 00 00 00 	mov    QWORD PTR [rbx+0x8],0x0
    6ef3:	00 
    6ef4:	89 43 20             	mov    DWORD PTR [rbx+0x20],eax
    6ef7:	8b 43 18             	mov    eax,DWORD PTR [rbx+0x18]
    6efa:	66 44 89 6b 28       	mov    WORD PTR [rbx+0x28],r13w
    6eff:	c6 43 10 00          	mov    BYTE PTR [rbx+0x10],0x0
    6f03:	89 43 24             	mov    DWORD PTR [rbx+0x24],eax
    6f06:	48 8b 44 24 68       	mov    rax,QWORD PTR [rsp+0x68]
    6f0b:	c6 43 1c 01          	mov    BYTE PTR [rbx+0x1c],0x1
    6f0f:	48 89 83 90 00 00 00 	mov    QWORD PTR [rbx+0x90],rax
    6f16:	48 8b 44 24 70       	mov    rax,QWORD PTR [rsp+0x70]
    6f1b:	0f 11 43 30          	movups XMMWORD PTR [rbx+0x30],xmm0
    6f1f:	0f 11 4b 40          	movups XMMWORD PTR [rbx+0x40],xmm1
    6f23:	0f 11 53 50          	movups XMMWORD PTR [rbx+0x50],xmm2
    6f27:	0f 11 5b 60          	movups XMMWORD PTR [rbx+0x60],xmm3
    6f2b:	0f 11 63 70          	movups XMMWORD PTR [rbx+0x70],xmm4
    6f2f:	0f 11 ab 80 00 00 00 	movups XMMWORD PTR [rbx+0x80],xmm5
    6f36:	ff d0                	call   rax
    6f38:	48 89 df             	mov    rdi,rbx
    6f3b:	ff 53 30             	call   QWORD PTR [rbx+0x30]
    6f3e:	48 81 c3 98 d0 02 00 	add    rbx,0x2d098
    6f45:	4c 39 f3             	cmp    rbx,r14
    6f48:	0f 85 4f ff ff ff    	jne    6e9d <vtt_setup+0x21d>
    6f4e:	48 8b 44 24 78       	mov    rax,QWORD PTR [rsp+0x78]
    6f53:	31 d2                	xor    edx,edx
    6f55:	4a 8b 04 38          	mov    rax,QWORD PTR [rax+r15*1]
    6f59:	48 8b 00             	mov    rax,QWORD PTR [rax]
    6f5c:	48 8b 78 08          	mov    rdi,QWORD PTR [rax+0x8]
    6f60:	8b 70 10             	mov    esi,DWORD PTR [rax+0x10]
    6f63:	48 8b 84 24 80 00 00 	mov    rax,QWORD PTR [rsp+0x80]
    6f6a:	00 
    6f6b:	4c 01 f8             	add    rax,r15
    6f6e:	ff d0                	call   rax
    6f70:	48 b8 c8 2a 00 00 00 	movabs rax,0x2ac8
    6f77:	00 00 00 
    6f7a:	49 c7 04 07 00 00 00 	mov    QWORD PTR [r15+rax*1],0x0
    6f81:	00 
    6f82:	42 8b 44 3d 04       	mov    eax,DWORD PTR [rbp+r15*1+0x4]
    6f87:	42 0f af 44 3d 00    	imul   eax,DWORD PTR [rbp+r15*1+0x0]
    6f8d:	89 c2                	mov    edx,eax
    6f8f:	85 c0                	test   eax,eax
    6f91:	74 4d                	je     6fe0 <vtt_setup+0x360>
    6f93:	48 8b 8c 24 88 00 00 	mov    rcx,QWORD PTR [rsp+0x88]
    6f9a:	00 
    6f9b:	48 c1 e2 04          	shl    rdx,0x4
    6f9f:	48 b8 74 2b 00 00 00 	movabs rax,0x2b74
    6fa6:	00 00 00 
    6fa9:	4c 01 f8             	add    rax,r15
    6fac:	48 8d 94 11 a4 00 00 	lea    rdx,[rcx+rdx*1+0xa4]
    6fb3:	00 
    6fb4:	48 89 d1             	mov    rcx,rdx
    6fb7:	48 29 c1             	sub    rcx,rax
    6fba:	83 e1 10             	and    ecx,0x10
    6fbd:	74 11                	je     6fd0 <vtt_setup+0x350>
    6fbf:	c6 00 01             	mov    BYTE PTR [rax],0x1
    6fc2:	48 83 c0 10          	add    rax,0x10
    6fc6:	48 39 d0             	cmp    rax,rdx
    6fc9:	74 15                	je     6fe0 <vtt_setup+0x360>
    6fcb:	0f 1f 44 00 00       	nop    DWORD PTR [rax+rax*1+0x0]
    6fd0:	c6 00 01             	mov    BYTE PTR [rax],0x1
    6fd3:	48 83 c0 20          	add    rax,0x20
    6fd7:	c6 40 f0 01          	mov    BYTE PTR [rax-0x10],0x1
    6fdb:	48 39 d0             	cmp    rax,rdx
    6fde:	75 f0                	jne    6fd0 <vtt_setup+0x350>
    6fe0:	48 81 c4 98 00 00 00 	add    rsp,0x98
    6fe7:	48 b8 c8 f0 ff ff ff 	movabs rax,0xfffffffffffff0c8
    6fee:	ff ff ff 
    6ff1:	48 ba c1 c1 ff ff ff 	movabs rdx,0xffffffffffffc1c1
    6ff8:	ff ff ff 
    6ffb:	5b                   	pop    rbx
    6ffc:	49 8d 3c 07          	lea    rdi,[r15+rax*1]
    7000:	4c 01 fa             	add    rdx,r15
    7003:	31 c0                	xor    eax,eax
    7005:	5d                   	pop    rbp
    7006:	41 5c                	pop    r12
    7008:	41 5d                	pop    r13
    700a:	41 5e                	pop    r14
    700c:	41 5f                	pop    r15
    700e:	ff e2                	jmp    rdx

0000000000007010 <vtt_init_term>:
    7010:	41 57                	push   r15
    7012:	49 bb 80 27 00 00 00 	movabs r11,0x2780
    7019:	00 00 00 
    701c:	4c 8d 3d ed ff ff ff 	lea    r15,[rip+0xffffffffffffffed]        # 7010 <vtt_init_term>
    7023:	48 b8 e8 f0 ff ff ff 	movabs rax,0xfffffffffffff0e8
    702a:	ff ff ff 
    702d:	4d 01 df             	add    r15,r11
    7030:	66 0f 6e c6          	movd   xmm0,esi
    7034:	66 0f 3a 22 c2 01    	pinsrd xmm0,edx,0x1
    703a:	48 ba f0 d1 ff ff ff 	movabs rdx,0xffffffffffffd1f0
    7041:	ff ff ff 
    7044:	53                   	push   rbx
    7045:	49 8d 0c 17          	lea    rcx,[r15+rdx*1]
    7049:	48 ba 70 d2 ff ff ff 	movabs rdx,0xffffffffffffd270
    7050:	ff ff ff 
    7053:	48 89 fb             	mov    rbx,rdi
    7056:	48 8d bf 98 00 00 00 	lea    rdi,[rdi+0x98]
    705d:	48 83 ec 08          	sub    rsp,0x8
    7061:	c6 87 7e ff ff ff cc 	mov    BYTE PTR [rdi-0x82],0xcc
    7068:	41 0f b7 04 07       	movzx  eax,WORD PTR [r15+rax*1]
    706d:	c6 47 82 00          	mov    BYTE PTR [rdi-0x7e],0x0
    7071:	66 0f d6 87 68 ff ff 	movq   QWORD PTR [rdi-0x98],xmm0
    7078:	ff 
    7079:	66 48 0f 6e c1       	movq   xmm0,rcx
    707e:	49 8d 0c 17          	lea    rcx,[r15+rdx*1]
    7082:	48 ba e0 d2 ff ff ff 	movabs rdx,0xffffffffffffd2e0
    7089:	ff ff ff 
    708c:	66 89 47 90          	mov    WORD PTR [rdi-0x70],ax
    7090:	48 b8 ea f0 ff ff ff 	movabs rax,0xfffffffffffff0ea
    7097:	ff ff ff 
    709a:	41 0f b7 04 07       	movzx  eax,WORD PTR [r15+rax*1]
    709f:	48 c7 87 70 ff ff ff 	mov    QWORD PTR [rdi-0x90],0x0
    70a6:	00 00 00 00 
    70aa:	c6 87 78 ff ff ff 00 	mov    BYTE PTR [rdi-0x88],0x0
    70b1:	66 89 87 7c ff ff ff 	mov    WORD PTR [rdi-0x84],ax
    70b8:	31 c0                	xor    eax,eax
    70ba:	66 89 47 80          	mov    WORD PTR [rdi-0x80],ax
    70be:	c6 47 84 01          	mov    BYTE PTR [rdi-0x7c],0x1
    70c2:	8b 87 7c ff ff ff    	mov    eax,DWORD PTR [rdi-0x84]
    70c8:	89 47 88             	mov    DWORD PTR [rdi-0x78],eax
    70cb:	8b 47 80             	mov    eax,DWORD PTR [rdi-0x80]
    70ce:	89 47 8c             	mov    DWORD PTR [rdi-0x74],eax
    70d1:	48 b8 30 d2 ff ff ff 	movabs rax,0xffffffffffffd230
    70d8:	ff ff ff 
    70db:	4c 01 f8             	add    rax,r15
    70de:	66 48 0f 3a 22 c0 01 	pinsrq xmm0,rax,0x1
    70e5:	48 b8 b0 d2 ff ff ff 	movabs rax,0xffffffffffffd2b0
    70ec:	ff ff ff 
    70ef:	0f 11 47 98          	movups XMMWORD PTR [rdi-0x68],xmm0
    70f3:	4c 01 f8             	add    rax,r15
    70f6:	66 48 0f 6e c1       	movq   xmm0,rcx
    70fb:	49 8d 0c 17          	lea    rcx,[r15+rdx*1]
    70ff:	66 48 0f 3a 22 c0 01 	pinsrq xmm0,rax,0x1
    7106:	48 b8 50 d4 ff ff ff 	movabs rax,0xffffffffffffd450
    710d:	ff ff ff 
    7110:	48 ba 90 d4 ff ff ff 	movabs rdx,0xffffffffffffd490
    7117:	ff ff ff 
    711a:	0f 11 47 a8          	movups XMMWORD PTR [rdi-0x58],xmm0
    711e:	4c 01 f8             	add    rax,r15
    7121:	66 48 0f 6e c1       	movq   xmm0,rcx
    7126:	49 8d 34 17          	lea    rsi,[r15+rdx*1]
    712a:	66 48 0f 3a 22 c0 01 	pinsrq xmm0,rax,0x1
    7131:	48 b8 f0 d3 ff ff ff 	movabs rax,0xffffffffffffd3f0
    7138:	ff ff ff 
    713b:	48 ba 10 d4 ff ff ff 	movabs rdx,0xffffffffffffd410
    7142:	ff ff ff 
    7145:	0f 11 47 b8          	movups XMMWORD PTR [rdi-0x48],xmm0
    7149:	4c 01 f8             	add    rax,r15
    714c:	66 48 0f 6e c6       	movq   xmm0,rsi
    7151:	49 8d 0c 17          	lea    rcx,[r15+rdx*1]
    7155:	66 48 0f 3a 22 c0 01 	pinsrq xmm0,rax,0x1
    715c:	48 b8 20 d4 ff ff ff 	movabs rax,0xffffffffffffd420
    7163:	ff ff ff 
    7166:	48 ba 30 d4 ff ff ff 	movabs rdx,0xffffffffffffd430
    716d:	ff ff ff 
    7170:	0f 11 47 c8          	movups XMMWORD PTR [rdi-0x38],xmm0
    7174:	4c 01 f8             	add    rax,r15
    7177:	66 48 0f 6e c1       	movq   xmm0,rcx
    717c:	49 8d 34 17          	lea    rsi,[r15+rdx*1]
    7180:	66 48 0f 3a 22 c0 01 	pinsrq xmm0,rax,0x1
    7187:	48 b8 40 d4 ff ff ff 	movabs rax,0xffffffffffffd440
    718e:	ff ff ff 
    7191:	31 d2                	xor    edx,edx
    7193:	0f 11 47 d8          	movups XMMWORD PTR [rdi-0x28],xmm0
    7197:	4c 01 f8             	add    rax,r15
    719a:	66 48 0f 6e c6       	movq   xmm0,rsi
    719f:	be 00 d0 02 00       	mov    esi,0x2d000
    71a4:	66 48 0f 3a 22 c0 01 	pinsrq xmm0,rax,0x1
    71ab:	48 b8 f8 ff ff ff ff 	movabs rax,0xfffffffffffffff8
    71b2:	ff ff ff 
    71b5:	49 8b 04 07          	mov    rax,QWORD PTR [r15+rax*1]
    71b9:	0f 11 47 e8          	movups XMMWORD PTR [rdi-0x18],xmm0
    71bd:	48 89 47 f8          	mov    QWORD PTR [rdi-0x8],rax
    71c1:	48 b8 e0 ae ff ff ff 	movabs rax,0xffffffffffffaee0
    71c8:	ff ff ff 
    71cb:	4c 01 f8             	add    rax,r15
    71ce:	ff d0                	call   rax
    71d0:	48 8b 43 30          	mov    rax,QWORD PTR [rbx+0x30]
    71d4:	48 83 c4 08          	add    rsp,0x8
    71d8:	48 89 df             	mov    rdi,rbx
    71db:	5b                   	pop    rbx
    71dc:	41 5f                	pop    r15
    71de:	ff e0                	jmp    rax

00000000000071e0 <vtt_set_handle>:
    71e0:	48 69 ff 98 d0 02 00 	imul   rdi,rdi,0x2d098
    71e7:	48 8d 05 f2 ff ff ff 	lea    rax,[rip+0xfffffffffffffff2]        # 71e0 <vtt_set_handle>
    71ee:	49 bb b0 25 00 00 00 	movabs r11,0x25b0
    71f5:	00 00 00 
    71f8:	48 ba d0 2a 00 00 00 	movabs rdx,0x2ad0
    71ff:	00 00 00 
    7202:	4c 01 d8             	add    rax,r11
    7205:	48 01 d0             	add    rax,rdx
    7208:	48 89 b4 38 90 00 00 	mov    QWORD PTR [rax+rdi*1+0x90],rsi
    720f:	00 
    7210:	c3                   	ret
    7211:	66 66 2e 0f 1f 84 00 	data16 cs nop WORD PTR [rax+rax*1+0x0]
    7218:	00 00 00 00 
    721c:	0f 1f 40 00          	nop    DWORD PTR [rax+0x0]

0000000000007220 <vtt_switch_to>:
    7220:	48 8d 15 f9 ff ff ff 	lea    rdx,[rip+0xfffffffffffffff9]        # 7220 <vtt_switch_to>
    7227:	49 bb 70 25 00 00 00 	movabs r11,0x2570
    722e:	00 00 00 
    7231:	48 b8 c8 2a 00 00 00 	movabs rax,0x2ac8
    7238:	00 00 00 
    723b:	48 b9 d0 2a 00 00 00 	movabs rcx,0x2ad0
    7242:	00 00 00 
    7245:	4c 01 da             	add    rdx,r11
    7248:	48 89 3c 02          	mov    QWORD PTR [rdx+rax*1],rdi
    724c:	48 69 c7 98 d0 02 00 	imul   rax,rdi,0x2d098
    7253:	48 8d 34 10          	lea    rsi,[rax+rdx*1]
    7257:	48 01 ca             	add    rdx,rcx
    725a:	48 01 d0             	add    rax,rdx
    725d:	8b 54 31 04          	mov    edx,DWORD PTR [rcx+rsi*1+0x4]
    7261:	0f af 10             	imul   edx,DWORD PTR [rax]
    7264:	89 d1                	mov    ecx,edx
    7266:	85 d2                	test   edx,edx
    7268:	74 3d                	je     72a7 <vtt_switch_to+0x87>
    726a:	48 c1 e1 04          	shl    rcx,0x4
    726e:	48 8d 14 08          	lea    rdx,[rax+rcx*1]
    7272:	83 e1 10             	and    ecx,0x10
    7275:	74 19                	je     7290 <vtt_switch_to+0x70>
    7277:	c6 80 a4 00 00 00 01 	mov    BYTE PTR [rax+0xa4],0x1
    727e:	48 83 c0 10          	add    rax,0x10
    7282:	48 39 d0             	cmp    rax,rdx
    7285:	74 21                	je     72a8 <vtt_switch_to+0x88>
    7287:	66 0f 1f 84 00 00 00 	nop    WORD PTR [rax+rax*1+0x0]
    728e:	00 00 
    7290:	c6 80 a4 00 00 00 01 	mov    BYTE PTR [rax+0xa4],0x1
    7297:	48 83 c0 20          	add    rax,0x20
    729b:	c6 80 94 00 00 00 01 	mov    BYTE PTR [rax+0x94],0x1
    72a2:	48 39 d0             	cmp    rax,rdx
    72a5:	75 e9                	jne    7290 <vtt_switch_to+0x70>
    72a7:	c3                   	ret
    72a8:	c3                   	ret
    72a9:	0f 1f 80 00 00 00 00 	nop    DWORD PTR [rax+0x0]

00000000000072b0 <vtt_update_set>:
    72b0:	8b 47 04             	mov    eax,DWORD PTR [rdi+0x4]
    72b3:	0f af 07             	imul   eax,DWORD PTR [rdi]
    72b6:	89 c1                	mov    ecx,eax
    72b8:	85 c0                	test   eax,eax
    72ba:	74 1b                	je     72d7 <vtt_update_set+0x27>
    72bc:	31 c0                	xor    eax,eax
    72be:	66 90                	xchg   ax,ax
    72c0:	48 89 c2             	mov    rdx,rax
    72c3:	48 ff c0             	inc    rax
    72c6:	48 c1 e2 04          	shl    rdx,0x4
    72ca:	c6 84 17 a4 00 00 00 	mov    BYTE PTR [rdi+rdx*1+0xa4],0x1
    72d1:	01 
    72d2:	48 39 c8             	cmp    rax,rcx
    72d5:	75 e9                	jne    72c0 <vtt_update_set+0x10>
    72d7:	c3                   	ret
    72d8:	0f 1f 84 00 00 00 00 	nop    DWORD PTR [rax+rax*1+0x0]
    72df:	00 

00000000000072e0 <vtt_renderterm>:
    72e0:	41 57                	push   r15
    72e2:	49 bb b0 24 00 00 00 	movabs r11,0x24b0
    72e9:	00 00 00 
    72ec:	4c 8d 3d ed ff ff ff 	lea    r15,[rip+0xffffffffffffffed]        # 72e0 <vtt_renderterm>
    72f3:	48 b8 c8 2a 00 00 00 	movabs rax,0x2ac8
    72fa:	00 00 00 
    72fd:	4d 01 df             	add    r15,r11
    7300:	41 56                	push   r14
    7302:	41 55                	push   r13
    7304:	49 bd d0 2a 00 00 00 	movabs r13,0x2ad0
    730b:	00 00 00 
    730e:	41 54                	push   r12
    7310:	55                   	push   rbp
    7311:	53                   	push   rbx
    7312:	48 83 ec 38          	sub    rsp,0x38
    7316:	4e 69 24 38 98 d0 02 	imul   r12,QWORD PTR [rax+r15*1],0x2d098
    731d:	00 
    731e:	4b 8d 04 3c          	lea    rax,[r12+r15*1]
    7322:	41 8b 7c 05 04       	mov    edi,DWORD PTR [r13+rax*1+0x4]
    7327:	85 ff                	test   edi,edi
    7329:	0f 84 46 01 00 00    	je     7475 <vtt_renderterm+0x195>
    732f:	4b 8d 44 3d 00       	lea    rax,[r13+r15*1+0x0]
    7334:	45 31 f6             	xor    r14d,r14d
    7337:	4d 8d 0c 04          	lea    r9,[r12+rax*1]
    733b:	48 89 44 24 28       	mov    QWORD PTR [rsp+0x28],rax
    7340:	4c 89 4c 24 20       	mov    QWORD PTR [rsp+0x20],r9
    7345:	41 8b 11             	mov    edx,DWORD PTR [r9]
    7348:	0f 1f 84 00 00 00 00 	nop    DWORD PTR [rax+rax*1+0x0]
    734f:	00 
    7350:	48 85 d2             	test   rdx,rdx
    7353:	0f 84 1c 01 00 00    	je     7475 <vtt_renderterm+0x195>
    7359:	43 8d 0c f6          	lea    ecx,[r14+r14*8]
    735d:	31 ff                	xor    edi,edi
    735f:	4f 8d 14 3c          	lea    r10,[r12+r15*1]
    7363:	31 ed                	xor    ebp,ebp
    7365:	8d 04 09             	lea    eax,[rcx+rcx*1]
    7368:	89 44 24 14          	mov    DWORD PTR [rsp+0x14],eax
    736c:	48 b8 d0 ff ff ff ff 	movabs rax,0xffffffffffffffd0
    7373:	ff ff ff 
    7376:	48 89 44 24 18       	mov    QWORD PTR [rsp+0x18],rax
    737b:	eb 2e                	jmp    73ab <vtt_renderterm+0xcb>
    737d:	0f 1f 00             	nop    DWORD PTR [rax]
    7380:	48 83 c0 09          	add    rax,0x9
    7384:	48 c1 e0 04          	shl    rax,0x4
    7388:	4a 8d 1c 20          	lea    rbx,[rax+r12*1]
    738c:	4c 01 fb             	add    rbx,r15
    738f:	4c 01 eb             	add    rbx,r13
    7392:	80 7b 14 00          	cmp    BYTE PTR [rbx+0x14],0x0
    7396:	0f 85 ec 00 00 00    	jne    7488 <vtt_renderterm+0x1a8>
    739c:	48 ff c5             	inc    rbp
    739f:	83 c7 0a             	add    edi,0xa
    73a2:	48 39 d5             	cmp    rbp,rdx
    73a5:	0f 83 b5 00 00 00    	jae    7460 <vtt_renderterm+0x180>
    73ab:	48 89 d0             	mov    rax,rdx
    73ae:	4b 8d 5c 15 00       	lea    rbx,[r13+r10*1+0x0]
    73b3:	49 0f af c6          	imul   rax,r14
    73b7:	8b 4b 08             	mov    ecx,DWORD PTR [rbx+0x8]
    73ba:	48 01 e8             	add    rax,rbp
    73bd:	48 39 e9             	cmp    rcx,rbp
    73c0:	75 be                	jne    7380 <vtt_renderterm+0xa0>
    73c2:	8b 4b 0c             	mov    ecx,DWORD PTR [rbx+0xc]
    73c5:	4c 39 f1             	cmp    rcx,r14
    73c8:	75 b6                	jne    7380 <vtt_renderterm+0xa0>
    73ca:	80 7b 29 00          	cmp    BYTE PTR [rbx+0x29],0x0
    73ce:	74 b0                	je     7380 <vtt_renderterm+0xa0>
    73d0:	80 7b 28 00          	cmp    BYTE PTR [rbx+0x28],0x0
    73d4:	74 aa                	je     7380 <vtt_renderterm+0xa0>
    73d6:	48 8b 44 24 20       	mov    rax,QWORD PTR [rsp+0x20]
    73db:	4c 89 54 24 08       	mov    QWORD PTR [rsp+0x8],r10
    73e0:	48 83 ec 08          	sub    rsp,0x8
    73e4:	ba 20 00 00 00       	mov    edx,0x20
    73e9:	48 63 4b 24          	movsxd rcx,DWORD PTR [rbx+0x24]
    73ed:	48 ff c5             	inc    rbp
    73f0:	44 8b 40 20          	mov    r8d,DWORD PTR [rax+0x20]
    73f4:	48 b8 d0 ff ff ff ff 	movabs rax,0xffffffffffffffd0
    73fb:	ff ff ff 
    73fe:	49 8b 04 07          	mov    rax,QWORD PTR [r15+rax*1]
    7402:	48 8b 00             	mov    rax,QWORD PTR [rax]
    7405:	50                   	push   rax
    7406:	4c 8d 48 50          	lea    r9,[rax+0x50]
    740a:	48 b8 b0 7f ff ff ff 	movabs rax,0xffffffffffff7fb0
    7411:	ff ff ff 
    7414:	4c 01 f8             	add    rax,r15
    7417:	8b 74 24 24          	mov    esi,DWORD PTR [rsp+0x24]
    741b:	89 7c 24 20          	mov    DWORD PTR [rsp+0x20],edi
    741f:	ff d0                	call   rax
    7421:	48 8b 44 24 30       	mov    rax,QWORD PTR [rsp+0x30]
    7426:	8b 10                	mov    edx,DWORD PTR [rax]
    7428:	8b 43 0c             	mov    eax,DWORD PTR [rbx+0xc]
    742b:	0f af c2             	imul   eax,edx
    742e:	03 43 08             	add    eax,DWORD PTR [rbx+0x8]
    7431:	48 83 c0 09          	add    rax,0x9
    7435:	48 c1 e0 04          	shl    rax,0x4
    7439:	4c 01 e0             	add    rax,r12
    743c:	4c 01 f8             	add    rax,r15
    743f:	41 c6 44 05 14 01    	mov    BYTE PTR [r13+rax*1+0x14],0x1
    7445:	59                   	pop    rcx
    7446:	5e                   	pop    rsi
    7447:	8b 7c 24 10          	mov    edi,DWORD PTR [rsp+0x10]
    744b:	4c 8b 54 24 08       	mov    r10,QWORD PTR [rsp+0x8]
    7450:	83 c7 0a             	add    edi,0xa
    7453:	48 39 d5             	cmp    rbp,rdx
    7456:	0f 82 4f ff ff ff    	jb     73ab <vtt_renderterm+0xcb>
    745c:	0f 1f 40 00          	nop    DWORD PTR [rax+0x0]
    7460:	4b 8d 0c 3c          	lea    rcx,[r12+r15*1]
    7464:	49 ff c6             	inc    r14
    7467:	41 8b 4c 0d 04       	mov    ecx,DWORD PTR [r13+rcx*1+0x4]
    746c:	49 39 ce             	cmp    r14,rcx
    746f:	0f 82 db fe ff ff    	jb     7350 <vtt_renderterm+0x70>
    7475:	48 83 c4 38          	add    rsp,0x38
    7479:	5b                   	pop    rbx
    747a:	5d                   	pop    rbp
    747b:	41 5c                	pop    r12
    747d:	41 5d                	pop    r13
    747f:	41 5e                	pop    r14
    7481:	41 5f                	pop    r15
    7483:	c3                   	ret
    7484:	0f 1f 40 00          	nop    DWORD PTR [rax+0x0]
    7488:	48 8b 74 24 18       	mov    rsi,QWORD PTR [rsp+0x18]
    748d:	49 8d 44 04 08       	lea    rax,[r12+rax*1+0x8]
    7492:	4c 89 54 24 08       	mov    QWORD PTR [rsp+0x8],r10
    7497:	48 83 ec 08          	sub    rsp,0x8
    749b:	49 8b 14 37          	mov    rdx,QWORD PTR [r15+rsi*1]
    749f:	48 8b 74 24 30       	mov    rsi,QWORD PTR [rsp+0x30]
    74a4:	48 8b 12             	mov    rdx,QWORD PTR [rdx]
    74a7:	48 01 f0             	add    rax,rsi
    74aa:	44 8b 40 08          	mov    r8d,DWORD PTR [rax+0x8]
    74ae:	8b 48 04             	mov    ecx,DWORD PTR [rax+0x4]
    74b1:	0f be 43 08          	movsx  eax,BYTE PTR [rbx+0x8]
    74b5:	52                   	push   rdx
    74b6:	4c 8d 4a 50          	lea    r9,[rdx+0x50]
    74ba:	89 c2                	mov    edx,eax
    74bc:	48 b8 b0 7f ff ff ff 	movabs rax,0xffffffffffff7fb0
    74c3:	ff ff ff 
    74c6:	8b 74 24 24          	mov    esi,DWORD PTR [rsp+0x24]
    74ca:	4c 01 f8             	add    rax,r15
    74cd:	89 7c 24 20          	mov    DWORD PTR [rsp+0x20],edi
    74d1:	ff d0                	call   rax
    74d3:	c6 43 14 00          	mov    BYTE PTR [rbx+0x14],0x0
    74d7:	58                   	pop    rax
    74d8:	5a                   	pop    rdx
    74d9:	48 8b 44 24 20       	mov    rax,QWORD PTR [rsp+0x20]
    74de:	4c 8b 54 24 08       	mov    r10,QWORD PTR [rsp+0x8]
    74e3:	8b 7c 24 10          	mov    edi,DWORD PTR [rsp+0x10]
    74e7:	8b 10                	mov    edx,DWORD PTR [rax]
    74e9:	e9 ae fe ff ff       	jmp    739c <vtt_renderterm+0xbc>
    74ee:	66 90                	xchg   ax,ax

00000000000074f0 <vtt_handle>:
    74f0:	41 57                	push   r15
    74f2:	49 bb a0 22 00 00 00 	movabs r11,0x22a0
    74f9:	00 00 00 
    74fc:	4c 8d 3d ed ff ff ff 	lea    r15,[rip+0xffffffffffffffed]        # 74f0 <vtt_handle>
    7503:	48 b8 c8 2a 00 00 00 	movabs rax,0x2ac8
    750a:	00 00 00 
    750d:	4d 01 df             	add    r15,r11
    7510:	48 ba 40 d1 ff ff ff 	movabs rdx,0xffffffffffffd140
    7517:	ff ff ff 
    751a:	4c 01 fa             	add    rdx,r15
    751d:	55                   	push   rbp
    751e:	48 bd d0 2a 00 00 00 	movabs rbp,0x2ad0
    7525:	00 00 00 
    7528:	53                   	push   rbx
    7529:	49 8b 1c 07          	mov    rbx,QWORD PTR [r15+rax*1]
    752d:	31 c0                	xor    eax,eax
    752f:	ff d2                	call   rdx
    7531:	48 ba cf f7 53 e3 a5 	movabs rdx,0x20c49ba5e353f7cf
    7538:	9b c4 20 
    753b:	48 c1 e8 02          	shr    rax,0x2
    753f:	48 69 db 98 d0 02 00 	imul   rbx,rbx,0x2d098
    7546:	48 f7 e2             	mul    rdx
    7549:	48 b8 50 db ff ff ff 	movabs rax,0xffffffffffffdb50
    7550:	ff ff ff 
    7553:	4c 01 f8             	add    rax,r15
    7556:	4a 8d 0c 3b          	lea    rcx,[rbx+r15*1]
    755a:	48 c1 ea 04          	shr    rdx,0x4
    755e:	48 01 e9             	add    rcx,rbp
    7561:	48 f7 d2             	not    rdx
    7564:	88 51 28             	mov    BYTE PTR [rcx+0x28],dl
    7567:	80 61 28 01          	and    BYTE PTR [rcx+0x28],0x1
    756b:	ff d0                	call   rax
    756d:	49 8d 04 2f          	lea    rax,[r15+rbp*1]
    7571:	48 8d 3c 03          	lea    rdi,[rbx+rax*1]
    7575:	5b                   	pop    rbx
    7576:	5d                   	pop    rbp
    7577:	48 8b 87 90 00 00 00 	mov    rax,QWORD PTR [rdi+0x90]
    757e:	41 5f                	pop    r15
    7580:	ff e0                	jmp    rax
    7582:	66 66 2e 0f 1f 84 00 	data16 cs nop WORD PTR [rax+rax*1+0x0]
    7589:	00 00 00 00 
    758d:	0f 1f 00             	nop    DWORD PTR [rax]

0000000000007590 <vtt_drawcur>:
    7590:	41 57                	push   r15
    7592:	49 bb 00 22 00 00 00 	movabs r11,0x2200
    7599:	00 00 00 
    759c:	4c 8d 3d ed ff ff ff 	lea    r15,[rip+0xffffffffffffffed]        # 7590 <vtt_drawcur>
    75a3:	48 b8 d0 ff ff ff ff 	movabs rax,0xffffffffffffffd0
    75aa:	ff ff ff 
    75ad:	4d 01 df             	add    r15,r11
    75b0:	53                   	push   rbx
    75b1:	48 89 fb             	mov    rbx,rdi
    75b4:	89 f7                	mov    edi,esi
    75b6:	89 d6                	mov    esi,edx
    75b8:	ba 20 00 00 00       	mov    edx,0x20
    75bd:	48 83 ec 10          	sub    rsp,0x10
    75c1:	49 8b 04 07          	mov    rax,QWORD PTR [r15+rax*1]
    75c5:	44 8b 43 20          	mov    r8d,DWORD PTR [rbx+0x20]
    75c9:	8b 4b 24             	mov    ecx,DWORD PTR [rbx+0x24]
    75cc:	48 8b 00             	mov    rax,QWORD PTR [rax]
    75cf:	50                   	push   rax
    75d0:	4c 8d 48 50          	lea    r9,[rax+0x50]
    75d4:	48 b8 b0 7f ff ff ff 	movabs rax,0xffffffffffff7fb0
    75db:	ff ff ff 
    75de:	4c 01 f8             	add    rax,r15
    75e1:	ff d0                	call   rax
    75e3:	8b 43 0c             	mov    eax,DWORD PTR [rbx+0xc]
    75e6:	0f af 03             	imul   eax,DWORD PTR [rbx]
    75e9:	03 43 08             	add    eax,DWORD PTR [rbx+0x8]
    75ec:	48 c1 e0 04          	shl    rax,0x4
    75f0:	c6 84 18 a4 00 00 00 	mov    BYTE PTR [rax+rbx*1+0xa4],0x1
    75f7:	01 
    75f8:	48 83 c4 18          	add    rsp,0x18
    75fc:	5b                   	pop    rbx
    75fd:	41 5f                	pop    r15
    75ff:	c3                   	ret

0000000000007600 <vtt_drawtchar>:
    7600:	41 57                	push   r15
    7602:	49 bb 90 21 00 00 00 	movabs r11,0x2190
    7609:	00 00 00 
    760c:	4c 8d 3d ed ff ff ff 	lea    r15,[rip+0xffffffffffffffed]        # 7600 <vtt_drawtchar>
    7613:	48 b8 d0 ff ff ff ff 	movabs rax,0xffffffffffffffd0
    761a:	ff ff ff 
    761d:	4d 01 df             	add    r15,r11
    7620:	53                   	push   rbx
    7621:	48 89 d3             	mov    rbx,rdx
    7624:	48 83 ec 10          	sub    rsp,0x10
    7628:	49 8b 04 07          	mov    rax,QWORD PTR [r15+rax*1]
    762c:	8b 4a 04             	mov    ecx,DWORD PTR [rdx+0x4]
    762f:	0f be 12             	movsx  edx,BYTE PTR [rdx]
    7632:	44 8b 43 08          	mov    r8d,DWORD PTR [rbx+0x8]
    7636:	48 8b 00             	mov    rax,QWORD PTR [rax]
    7639:	50                   	push   rax
    763a:	4c 8d 48 50          	lea    r9,[rax+0x50]
    763e:	48 b8 b0 7f ff ff ff 	movabs rax,0xffffffffffff7fb0
    7645:	ff ff ff 
    7648:	4c 01 f8             	add    rax,r15
    764b:	ff d0                	call   rax
    764d:	c6 43 0c 00          	mov    BYTE PTR [rbx+0xc],0x0
    7651:	48 83 c4 18          	add    rsp,0x18
    7655:	5b                   	pop    rbx
    7656:	41 5f                	pop    r15
    7658:	c3                   	ret
    7659:	0f 1f 80 00 00 00 00 	nop    DWORD PTR [rax+0x0]

0000000000007660 <vtt_putchar>:
    7660:	53                   	push   rbx
    7661:	49 bb 30 21 00 00 00 	movabs r11,0x2130
    7668:	00 00 00 
    766b:	48 8d 1d ee ff ff ff 	lea    rbx,[rip+0xffffffffffffffee]        # 7660 <vtt_putchar>
    7672:	48 89 f8             	mov    rax,rdi
    7675:	4c 01 db             	add    rbx,r11
    7678:	40 80 fe 0a          	cmp    sil,0xa
    767c:	0f 84 be 00 00 00    	je     7740 <vtt_putchar+0xe0>
    7682:	7f 24                	jg     76a8 <vtt_putchar+0x48>
    7684:	40 84 f6             	test   sil,sil
    7687:	74 36                	je     76bf <vtt_putchar+0x5f>
    7689:	40 80 fe 09          	cmp    sil,0x9
    768d:	75 41                	jne    76d0 <vtt_putchar+0x70>
    768f:	ff 57 40             	call   QWORD PTR [rdi+0x40]
    7692:	48 b8 50 db ff ff ff 	movabs rax,0xffffffffffffdb50
    7699:	ff ff ff 
    769c:	48 01 d8             	add    rax,rbx
    769f:	5b                   	pop    rbx
    76a0:	ff e0                	jmp    rax
    76a2:	66 0f 1f 44 00 00    	nop    WORD PTR [rax+rax*1+0x0]
    76a8:	40 80 fe 1b          	cmp    sil,0x1b
    76ac:	75 22                	jne    76d0 <vtt_putchar+0x70>
    76ae:	48 b8 b0 2a 00 00 00 	movabs rax,0x2ab0
    76b5:	00 00 00 
    76b8:	c7 04 03 1b 00 00 00 	mov    DWORD PTR [rbx+rax*1],0x1b
    76bf:	48 b8 50 db ff ff ff 	movabs rax,0xffffffffffffdb50
    76c6:	ff ff ff 
    76c9:	48 01 d8             	add    rax,rbx
    76cc:	5b                   	pop    rbx
    76cd:	ff e0                	jmp    rax
    76cf:	90                   	nop
    76d0:	8b 50 0c             	mov    edx,DWORD PTR [rax+0xc]
    76d3:	0f b6 78 26          	movzx  edi,BYTE PTR [rax+0x26]
    76d7:	44 0f b7 50 20       	movzx  r10d,WORD PTR [rax+0x20]
    76dc:	44 0f b6 48 22       	movzx  r9d,BYTE PTR [rax+0x22]
    76e1:	0f af 10             	imul   edx,DWORD PTR [rax]
    76e4:	44 0f b7 40 24       	movzx  r8d,WORD PTR [rax+0x24]
    76e9:	03 50 08             	add    edx,DWORD PTR [rax+0x8]
    76ec:	48 89 d1             	mov    rcx,rdx
    76ef:	48 83 c2 09          	add    rdx,0x9
    76f3:	48 c1 e1 04          	shl    rcx,0x4
    76f7:	48 c1 e2 04          	shl    rdx,0x4
    76fb:	48 01 c1             	add    rcx,rax
    76fe:	40 88 b1 98 00 00 00 	mov    BYTE PTR [rcx+0x98],sil
    7705:	66 44 89 54 10 0c    	mov    WORD PTR [rax+rdx*1+0xc],r10w
    770b:	44 88 89 9e 00 00 00 	mov    BYTE PTR [rcx+0x9e],r9b
    7712:	66 44 89 44 10 10    	mov    WORD PTR [rax+rdx*1+0x10],r8w
    7718:	40 88 b9 a2 00 00 00 	mov    BYTE PTR [rcx+0xa2],dil
    771f:	48 89 c7             	mov    rdi,rax
    7722:	c6 81 a4 00 00 00 01 	mov    BYTE PTR [rcx+0xa4],0x1
    7729:	ff 50 58             	call   QWORD PTR [rax+0x58]
    772c:	48 b8 50 db ff ff ff 	movabs rax,0xffffffffffffdb50
    7733:	ff ff ff 
    7736:	48 01 d8             	add    rax,rbx
    7739:	5b                   	pop    rbx
    773a:	ff e0                	jmp    rax
    773c:	0f 1f 40 00          	nop    DWORD PTR [rax+0x0]
    7740:	ff 57 38             	call   QWORD PTR [rdi+0x38]
    7743:	48 b8 50 db ff ff ff 	movabs rax,0xffffffffffffdb50
    774a:	ff ff ff 
    774d:	48 01 d8             	add    rax,rbx
    7750:	5b                   	pop    rbx
    7751:	ff e0                	jmp    rax
    7753:	66 66 2e 0f 1f 84 00 	data16 cs nop WORD PTR [rax+rax*1+0x0]
    775a:	00 00 00 00 
    775e:	66 90                	xchg   ax,ax

0000000000007760 <vtt_putchar_at>:
    7760:	53                   	push   rbx
    7761:	49 bb 30 20 00 00 00 	movabs r11,0x2030
    7768:	00 00 00 
    776b:	48 8d 1d ee ff ff ff 	lea    rbx,[rip+0xffffffffffffffee]        # 7760 <vtt_putchar_at>
    7772:	48 89 f8             	mov    rax,rdi
    7775:	4c 01 db             	add    rbx,r11
    7778:	40 80 fe 0a          	cmp    sil,0xa
    777c:	0f 84 b6 00 00 00    	je     7838 <vtt_putchar_at+0xd8>
    7782:	7f 24                	jg     77a8 <vtt_putchar_at+0x48>
    7784:	40 84 f6             	test   sil,sil
    7787:	74 36                	je     77bf <vtt_putchar_at+0x5f>
    7789:	40 80 fe 09          	cmp    sil,0x9
    778d:	75 41                	jne    77d0 <vtt_putchar_at+0x70>
    778f:	ff 57 40             	call   QWORD PTR [rdi+0x40]
    7792:	48 b8 50 db ff ff ff 	movabs rax,0xffffffffffffdb50
    7799:	ff ff ff 
    779c:	48 01 d8             	add    rax,rbx
    779f:	5b                   	pop    rbx
    77a0:	ff e0                	jmp    rax
    77a2:	66 0f 1f 44 00 00    	nop    WORD PTR [rax+rax*1+0x0]
    77a8:	40 80 fe 1b          	cmp    sil,0x1b
    77ac:	75 22                	jne    77d0 <vtt_putchar_at+0x70>
    77ae:	48 b8 b0 2a 00 00 00 	movabs rax,0x2ab0
    77b5:	00 00 00 
    77b8:	c7 04 03 1b 00 00 00 	mov    DWORD PTR [rbx+rax*1],0x1b
    77bf:	48 b8 50 db ff ff ff 	movabs rax,0xffffffffffffdb50
    77c6:	ff ff ff 
    77c9:	48 01 d8             	add    rax,rbx
    77cc:	5b                   	pop    rbx
    77cd:	ff e0                	jmp    rax
    77cf:	90                   	nop
    77d0:	0f af 08             	imul   ecx,DWORD PTR [rax]
    77d3:	44 0f b7 50 20       	movzx  r10d,WORD PTR [rax+0x20]
    77d8:	44 0f b6 48 22       	movzx  r9d,BYTE PTR [rax+0x22]
    77dd:	44 0f b7 40 24       	movzx  r8d,WORD PTR [rax+0x24]
    77e2:	0f b6 78 26          	movzx  edi,BYTE PTR [rax+0x26]
    77e6:	01 ca                	add    edx,ecx
    77e8:	89 d2                	mov    edx,edx
    77ea:	48 89 d1             	mov    rcx,rdx
    77ed:	48 83 c2 09          	add    rdx,0x9
    77f1:	48 c1 e1 04          	shl    rcx,0x4
    77f5:	48 c1 e2 04          	shl    rdx,0x4
    77f9:	48 01 c1             	add    rcx,rax
    77fc:	40 88 b1 98 00 00 00 	mov    BYTE PTR [rcx+0x98],sil
    7803:	66 44 89 54 10 0c    	mov    WORD PTR [rax+rdx*1+0xc],r10w
    7809:	44 88 89 9e 00 00 00 	mov    BYTE PTR [rcx+0x9e],r9b
    7810:	66 44 89 44 10 10    	mov    WORD PTR [rax+rdx*1+0x10],r8w
    7816:	48 b8 50 db ff ff ff 	movabs rax,0xffffffffffffdb50
    781d:	ff ff ff 
    7820:	40 88 b9 a2 00 00 00 	mov    BYTE PTR [rcx+0xa2],dil
    7827:	48 01 d8             	add    rax,rbx
    782a:	c6 81 a4 00 00 00 01 	mov    BYTE PTR [rcx+0xa4],0x1
    7831:	5b                   	pop    rbx
    7832:	ff e0                	jmp    rax
    7834:	0f 1f 40 00          	nop    DWORD PTR [rax+0x0]
    7838:	ff 57 38             	call   QWORD PTR [rdi+0x38]
    783b:	48 b8 50 db ff ff ff 	movabs rax,0xffffffffffffdb50
    7842:	ff ff ff 
    7845:	48 01 d8             	add    rax,rbx
    7848:	5b                   	pop    rbx
    7849:	ff e0                	jmp    rax
    784b:	0f 1f 44 00 00       	nop    DWORD PTR [rax+rax*1+0x0]
    7850:	02 41 73             	add    al,BYTE PTR [rcx+0x73]
    7853:	73 65                	jae    78ba <vtt_putchar_at+0x15a>
    7855:	72 74                	jb     78cb <vtt_putchar_at+0x16b>
    7857:	69 6f 6e 20 66 61 69 	imul   ebp,DWORD PTR [rdi+0x6e],0x69616620
    785e:	6c                   	ins    BYTE PTR es:[rdi],dx
    785f:	65 64 21 20          	gs and DWORD PTR fs:[rax],esp
    7863:	43 61                	rex.XB (bad)
    7865:	75 73                	jne    78da <vtt_putchar_at+0x17a>
    7867:	65 64 20 62 79       	gs and BYTE PTR fs:[rdx+0x79],ah
    786c:	20 22                	and    BYTE PTR [rdx],ah
    786e:	25 73 22 20 61       	and    eax,0x61202273
    7873:	74 20                	je     7895 <vtt_putchar_at+0x135>
    7875:	25 73 3a 25 64       	and    eax,0x64253a73
    787a:	2c 20                	sub    al,0x20
    787c:	69 6e 20 66 75 6e 63 	imul   ebp,DWORD PTR [rsi+0x20],0x636e7566
    7883:	74 69                	je     78ee <vtt_putchar_at+0x18e>
    7885:	6f                   	outs   dx,DWORD PTR ds:[rsi]
    7886:	6e                   	outs   dx,BYTE PTR ds:[rsi]
    7887:	20 22                	and    BYTE PTR [rdx],ah
    7889:	25 73 22 0a 00       	and    eax,0xa2273
    788e:	53                   	push   rbx
    788f:	77 69                	ja     78fa <vtt_putchar_at+0x19a>
    7891:	74 63                	je     78f6 <vtt_putchar_at+0x196>
    7893:	68 65 64 20 74       	push   0x74206465
    7898:	6f                   	outs   dx,DWORD PTR ds:[rsi]
    7899:	20 76 74             	and    BYTE PTR [rsi+0x74],dh
    789c:	74 20                	je     78be <vtt_putchar_at+0x15e>
    789e:	25 64 0a 00 66       	and    eax,0x66000a64
    78a3:	0f 1f 44 00 00       	nop    DWORD PTR [rax+rax*1+0x0]
    78a8:	ad                   	lods   eax,DWORD PTR ds:[rsi]
    78a9:	98                   	cwde
    78aa:	ff                   	(bad)
    78ab:	ff                   	(bad)
    78ac:	ff                   	(bad)
    78ad:	ff                   	(bad)
    78ae:	ff                   	(bad)
    78af:	ff 2f                	jmp    FWORD PTR [rdi]
    78b1:	98                   	cwde
    78b2:	ff                   	(bad)
    78b3:	ff                   	(bad)
    78b4:	ff                   	(bad)
    78b5:	ff                   	(bad)
    78b6:	ff                   	(bad)
    78b7:	ff                   	(bad)
    78b8:	38 98 ff ff ff ff    	cmp    BYTE PTR [rax-0x1],bl
    78be:	ff                   	(bad)
    78bf:	ff                   	(bad)
    78c0:	38 98 ff ff ff ff    	cmp    BYTE PTR [rax-0x1],bl
    78c6:	ff                   	(bad)
    78c7:	ff                   	(bad)
    78c8:	38 98 ff ff ff ff    	cmp    BYTE PTR [rax-0x1],bl
    78ce:	ff                   	(bad)
    78cf:	ff                   	(bad)
    78d0:	38 98 ff ff ff ff    	cmp    BYTE PTR [rax-0x1],bl
    78d6:	ff                   	(bad)
    78d7:	ff                   	(bad)
    78d8:	38 98 ff ff ff ff    	cmp    BYTE PTR [rax-0x1],bl
    78de:	ff                   	(bad)
    78df:	ff                   	(bad)
    78e0:	38 98 ff ff ff ff    	cmp    BYTE PTR [rax-0x1],bl
    78e6:	ff                   	(bad)
    78e7:	ff                   	(bad)
    78e8:	38 98 ff ff ff ff    	cmp    BYTE PTR [rax-0x1],bl
    78ee:	ff                   	(bad)
    78ef:	ff                   	(bad)
    78f0:	38 98 ff ff ff ff    	cmp    BYTE PTR [rax-0x1],bl
    78f6:	ff                   	(bad)
    78f7:	ff                   	(bad)
    78f8:	38 98 ff ff ff ff    	cmp    BYTE PTR [rax-0x1],bl
    78fe:	ff                   	(bad)
    78ff:	ff                   	(bad)
    7900:	38 98 ff ff ff ff    	cmp    BYTE PTR [rax-0x1],bl
    7906:	ff                   	(bad)
    7907:	ff                   	(bad)
    7908:	38 98 ff ff ff ff    	cmp    BYTE PTR [rax-0x1],bl
    790e:	ff                   	(bad)
    790f:	ff                   	(bad)
    7910:	38 98 ff ff ff ff    	cmp    BYTE PTR [rax-0x1],bl
    7916:	ff                   	(bad)
    7917:	ff a5 98 ff ff ff    	jmp    QWORD PTR [rbp-0x68]
    791d:	ff                   	(bad)
    791e:	ff                   	(bad)
    791f:	ff                   	(bad)
    7920:	38 98 ff ff ff ff    	cmp    BYTE PTR [rax-0x1],bl
    7926:	ff                   	(bad)
    7927:	ff                   	(bad)
    7928:	38 98 ff ff ff ff    	cmp    BYTE PTR [rax-0x1],bl
    792e:	ff                   	(bad)
    792f:	ff                   	(bad)
    7930:	38 98 ff ff ff ff    	cmp    BYTE PTR [rax-0x1],bl
    7936:	ff                   	(bad)
    7937:	ff                   	(bad)
    7938:	38 98 ff ff ff ff    	cmp    BYTE PTR [rax-0x1],bl
    793e:	ff                   	(bad)
    793f:	ff                   	(bad)
    7940:	38 98 ff ff ff ff    	cmp    BYTE PTR [rax-0x1],bl
    7946:	ff                   	(bad)
    7947:	ff                   	(bad)
    7948:	38 98 ff ff ff ff    	cmp    BYTE PTR [rax-0x1],bl
    794e:	ff                   	(bad)
    794f:	ff                   	(bad)
    7950:	38 98 ff ff ff ff    	cmp    BYTE PTR [rax-0x1],bl
    7956:	ff                   	(bad)
    7957:	ff                   	(bad)
    7958:	38 98 ff ff ff ff    	cmp    BYTE PTR [rax-0x1],bl
    795e:	ff                   	(bad)
    795f:	ff                   	(bad)
    7960:	38 98 ff ff ff ff    	cmp    BYTE PTR [rax-0x1],bl
    7966:	ff                   	(bad)
    7967:	ff                   	(bad)
    7968:	38 98 ff ff ff ff    	cmp    BYTE PTR [rax-0x1],bl
    796e:	ff                   	(bad)
    796f:	ff                   	(bad)
    7970:	38 98 ff ff ff ff    	cmp    BYTE PTR [rax-0x1],bl
    7976:	ff                   	(bad)
    7977:	ff                   	(bad)
    7978:	38 98 ff ff ff ff    	cmp    BYTE PTR [rax-0x1],bl
    797e:	ff                   	(bad)
    797f:	ff                   	(bad)
    7980:	38 98 ff ff ff ff    	cmp    BYTE PTR [rax-0x1],bl
    7986:	ff                   	(bad)
    7987:	ff                   	(bad)
    7988:	38 98 ff ff ff ff    	cmp    BYTE PTR [rax-0x1],bl
    798e:	ff                   	(bad)
    798f:	ff                   	(bad)
    7990:	38 98 ff ff ff ff    	cmp    BYTE PTR [rax-0x1],bl
    7996:	ff                   	(bad)
    7997:	ff                   	(bad)
    7998:	38 98 ff ff ff ff    	cmp    BYTE PTR [rax-0x1],bl
    799e:	ff                   	(bad)
    799f:	ff                   	(bad)
    79a0:	38 98 ff ff ff ff    	cmp    BYTE PTR [rax-0x1],bl
    79a6:	ff                   	(bad)
    79a7:	ff                   	(bad)
    79a8:	38 98 ff ff ff ff    	cmp    BYTE PTR [rax-0x1],bl
    79ae:	ff                   	(bad)
    79af:	ff                   	(bad)
    79b0:	38 98 ff ff ff ff    	cmp    BYTE PTR [rax-0x1],bl
    79b6:	ff                   	(bad)
    79b7:	ff                   	(bad)
    79b8:	38 98 ff ff ff ff    	cmp    BYTE PTR [rax-0x1],bl
    79be:	ff                   	(bad)
    79bf:	ff                   	(bad)
    79c0:	38 98 ff ff ff ff    	cmp    BYTE PTR [rax-0x1],bl
    79c6:	ff                   	(bad)
    79c7:	ff                   	(bad)
    79c8:	38 98 ff ff ff ff    	cmp    BYTE PTR [rax-0x1],bl
    79ce:	ff                   	(bad)
    79cf:	ff                   	(bad)
    79d0:	38 98 ff ff ff ff    	cmp    BYTE PTR [rax-0x1],bl
    79d6:	ff                   	(bad)
    79d7:	ff                   	(bad)
    79d8:	38 98 ff ff ff ff    	cmp    BYTE PTR [rax-0x1],bl
    79de:	ff                   	(bad)
    79df:	ff                   	(bad)
    79e0:	38 98 ff ff ff ff    	cmp    BYTE PTR [rax-0x1],bl
    79e6:	ff                   	(bad)
    79e7:	ff                   	(bad)
    79e8:	38 98 ff ff ff ff    	cmp    BYTE PTR [rax-0x1],bl
    79ee:	ff                   	(bad)
    79ef:	ff                   	(bad)
    79f0:	38 98 ff ff ff ff    	cmp    BYTE PTR [rax-0x1],bl
    79f6:	ff                   	(bad)
    79f7:	ff                   	(bad)
    79f8:	38 98 ff ff ff ff    	cmp    BYTE PTR [rax-0x1],bl
    79fe:	ff                   	(bad)
    79ff:	ff                   	(bad)
    7a00:	38 98 ff ff ff ff    	cmp    BYTE PTR [rax-0x1],bl
    7a06:	ff                   	(bad)
    7a07:	ff                   	(bad)
    7a08:	38 98 ff ff ff ff    	cmp    BYTE PTR [rax-0x1],bl
    7a0e:	ff                   	(bad)
    7a0f:	ff 48 98             	dec    DWORD PTR [rax-0x68]
    7a12:	ff                   	(bad)
    7a13:	ff                   	(bad)
    7a14:	ff                   	(bad)
    7a15:	ff                   	(bad)
    7a16:	ff                   	(bad)
    7a17:	ff 48 98             	dec    DWORD PTR [rax-0x68]
    7a1a:	ff                   	(bad)
    7a1b:	ff                   	(bad)
    7a1c:	ff                   	(bad)
    7a1d:	ff                   	(bad)
    7a1e:	ff                   	(bad)
    7a1f:	ff 48 98             	dec    DWORD PTR [rax-0x68]
    7a22:	ff                   	(bad)
    7a23:	ff                   	(bad)
    7a24:	ff                   	(bad)
    7a25:	ff                   	(bad)
    7a26:	ff                   	(bad)
    7a27:	ff                   	(bad)
    7a28:	38 98 ff ff ff ff    	cmp    BYTE PTR [rax-0x1],bl
    7a2e:	ff                   	(bad)
    7a2f:	ff                   	(bad)
    7a30:	38 98 ff ff ff ff    	cmp    BYTE PTR [rax-0x1],bl
    7a36:	ff                   	(bad)
    7a37:	ff                   	(bad)
    7a38:	38 98 ff ff ff ff    	cmp    BYTE PTR [rax-0x1],bl
    7a3e:	ff                   	(bad)
    7a3f:	ff                   	(bad)
    7a40:	38 98 ff ff ff ff    	cmp    BYTE PTR [rax-0x1],bl
    7a46:	ff                   	(bad)
    7a47:	ff                   	(bad)
    7a48:	38 98 ff ff ff ff    	cmp    BYTE PTR [rax-0x1],bl
    7a4e:	ff                   	(bad)
    7a4f:	ff                   	(bad)
    7a50:	38 98 ff ff ff ff    	cmp    BYTE PTR [rax-0x1],bl
    7a56:	ff                   	(bad)
    7a57:	ff                   	(bad)
    7a58:	38 98 ff ff ff ff    	cmp    BYTE PTR [rax-0x1],bl
    7a5e:	ff                   	(bad)
    7a5f:	ff                   	(bad)
    7a60:	38 98 ff ff ff ff    	cmp    BYTE PTR [rax-0x1],bl
    7a66:	ff                   	(bad)
    7a67:	ff                   	(bad)
    7a68:	38 98 ff ff ff ff    	cmp    BYTE PTR [rax-0x1],bl
    7a6e:	ff                   	(bad)
    7a6f:	ff                   	(bad)
    7a70:	38 98 ff ff ff ff    	cmp    BYTE PTR [rax-0x1],bl
    7a76:	ff                   	(bad)
    7a77:	ff 90 98 ff ff ff    	call   QWORD PTR [rax-0x68]
    7a7d:	ff                   	(bad)
    7a7e:	ff                   	(bad)
    7a7f:	ff                   	(bad)
    7a80:	38 98 ff ff ff ff    	cmp    BYTE PTR [rax-0x1],bl
    7a86:	ff                   	(bad)
    7a87:	ff                   	(bad)
    7a88:	38 98 ff ff ff ff    	cmp    BYTE PTR [rax-0x1],bl
    7a8e:	ff                   	(bad)
    7a8f:	ff 9d 98 ff ff ff    	call   FWORD PTR [rbp-0x68]
    7a95:	ff                   	(bad)
    7a96:	ff                   	(bad)
    7a97:	ff                   	(bad)
    7a98:	38 98 ff ff ff ff    	cmp    BYTE PTR [rax-0x1],bl
    7a9e:	ff                   	(bad)
    7a9f:	ff 95 98 ff ff ff    	call   QWORD PTR [rbp-0x68]
    7aa5:	ff                   	(bad)
    7aa6:	ff                   	(bad)
    7aa7:	ff 85 98 ff ff ff    	inc    DWORD PTR [rbp-0x68]
    7aad:	ff                   	(bad)
    7aae:	ff                   	(bad)
    7aaf:	ff                   	(bad)
    7ab0:	38 98 ff ff ff ff    	cmp    BYTE PTR [rax-0x1],bl
    7ab6:	ff                   	(bad)
    7ab7:	ff 80 98 ff ff ff    	inc    DWORD PTR [rax-0x68]
    7abd:	ff                   	(bad)
    7abe:	ff                   	(bad)
    7abf:	ff                   	(bad)
    7ac0:	38 98 ff ff ff ff    	cmp    BYTE PTR [rax-0x1],bl
    7ac6:	ff                   	(bad)
    7ac7:	ff                   	(bad)
    7ac8:	38 98 ff ff ff ff    	cmp    BYTE PTR [rax-0x1],bl
    7ace:	ff                   	(bad)
    7acf:	ff                   	(bad)
    7ad0:	38 98 ff ff ff ff    	cmp    BYTE PTR [rax-0x1],bl
    7ad6:	ff                   	(bad)
    7ad7:	ff                   	(bad)
    7ad8:	38 98 ff ff ff ff    	cmp    BYTE PTR [rax-0x1],bl
    7ade:	ff                   	(bad)
    7adf:	ff                   	(bad)
    7ae0:	38 98 ff ff ff ff    	cmp    BYTE PTR [rax-0x1],bl
    7ae6:	ff                   	(bad)
    7ae7:	ff                   	(bad)
    7ae8:	38 98 ff ff ff ff    	cmp    BYTE PTR [rax-0x1],bl
    7aee:	ff                   	(bad)
    7aef:	ff                   	(bad)
    7af0:	38 98 ff ff ff ff    	cmp    BYTE PTR [rax-0x1],bl
    7af6:	ff                   	(bad)
    7af7:	ff 88 98 ff ff ff    	dec    DWORD PTR [rax-0x68]
    7afd:	ff                   	(bad)
    7afe:	ff                   	(bad)
    7aff:	ff 02                	inc    DWORD PTR [rdx]
    7b01:	53                   	push   rbx
    7b02:	65 74 74             	gs je  7b79 <vtt_putchar_at+0x419>
    7b05:	69 6e 67 20 75 70 20 	imul   ebp,DWORD PTR [rsi+0x67],0x20707520
    7b0c:	47                   	rex.RXB
    7b0d:	44 54                	rex.R push rsp
    7b0f:	2e 2e 2e 20 00       	cs cs cs and BYTE PTR [rax],al
    7b14:	01 5b 44             	add    DWORD PTR [rbx+0x44],ebx
    7b17:	4f                   	rex.WRXB
    7b18:	4e                   	rex.WRX
    7b19:	45 5d                	rex.RB pop r13
    7b1b:	0a 00                	or     al,BYTE PTR [rax]
    7b1d:	0f 1f 00             	nop    DWORD PTR [rax]
    7b20:	04 04                	add    al,0x4
    7b22:	08 08                	or     BYTE PTR [rax],cl
    7b24:	08 0c 0c             	or     BYTE PTR [rsp+rcx*1],cl
    7b27:	0c 80                	or     al,0x80
    7b29:	80 80 80 80 80 80 80 	add    BYTE PTR [rax-0x7f7f7f80],0x80
    7b30:	80 80 80 80 80 80 80 	add    BYTE PTR [rax-0x7f7f7f80],0x80
    7b37:	80 00 00             	add    BYTE PTR [rax],0x0
    7b3a:	00 04 04             	add    BYTE PTR [rsp+rax*1],al
    7b3d:	04 08                	add    al,0x8
    7b3f:	08 08                	or     BYTE PTR [rax],cl
    7b41:	0c 0c                	or     al,0xc
    7b43:	0c 80                	or     al,0x80
    7b45:	80 80 80 80 80 80 80 	add    BYTE PTR [rax-0x7f7f7f80],0x80
    7b4c:	80 80 80 80 80 80 80 	add    BYTE PTR [rax-0x7f7f7f80],0x80
    7b53:	80 00 00             	add    BYTE PTR [rax],0x0
    7b56:	00 04 04             	add    BYTE PTR [rsp+rax*1],al
    7b59:	04 08                	add    al,0x8
    7b5b:	08 08                	or     BYTE PTR [rax],cl
    7b5d:	0c 0c                	or     al,0xc
    7b5f:	0c 00                	or     al,0x0
    7b61:	00 00                	add    BYTE PTR [rax],al
    7b63:	04 04                	add    al,0x4
    7b65:	04 08                	add    al,0x8
    7b67:	08 08                	or     BYTE PTR [rax],cl
    7b69:	0c 0c                	or     al,0xc
    7b6b:	0c 80                	or     al,0x80
    7b6d:	80 80 80 80 80 80 80 	add    BYTE PTR [rax-0x7f7f7f80],0x80
    7b74:	80 80 80 80 80 80 80 	add    BYTE PTR [rax-0x7f7f7f80],0x80
    7b7b:	80 00 00             	add    BYTE PTR [rax],0x0
    7b7e:	00 04 03             	add    BYTE PTR [rbx+rax*1],al
    7b81:	04 02                	add    al,0x2
    7b83:	03 04 05 06 07 08 09 	add    eax,DWORD PTR [rax*1+0x9080706]
    7b8a:	0a 0b                	or     cl,BYTE PTR [rbx]
    7b8c:	0c 0d                	or     al,0xd
    7b8e:	0e                   	(bad)
    7b8f:	0f 09                	wbinvd
    7b91:	0a 02                	or     al,BYTE PTR [rdx]
    7b93:	03 04 05 06 07 08 09 	add    eax,DWORD PTR [rax*1+0x9080706]
    7b9a:	0a 0b                	or     cl,BYTE PTR [rbx]
    7b9c:	0c 0d                	or     al,0xd
    7b9e:	0e                   	(bad)
    7b9f:	0f                   	(bad)
    7ba0:	0f 80 80 80 80 80    	jo     ffffffff8080fc26 <_k_end+0xffffffff8077c7fe>
    7ba6:	80 80 80 80 80 80 80 	add    BYTE PTR [rax-0x7f7f7f80],0x80
    7bad:	80 80 80 80 00 02 03 	add    BYTE PTR [rax+0x2008080],0x3
    7bb4:	04 05                	add    al,0x5
    7bb6:	06                   	(bad)
    7bb7:	07                   	(bad)
    7bb8:	08 09                	or     BYTE PTR [rcx],cl
    7bba:	0a 0b                	or     cl,BYTE PTR [rbx]
    7bbc:	0c 0d                	or     al,0xd
    7bbe:	0e                   	(bad)
    7bbf:	0f 05                	syscall
    7bc1:	06                   	(bad)
    7bc2:	02 03                	add    al,BYTE PTR [rbx]
    7bc4:	04 05                	add    al,0x5
    7bc6:	06                   	(bad)
    7bc7:	07                   	(bad)
    7bc8:	08 09                	or     BYTE PTR [rcx],cl
    7bca:	0a 0b                	or     cl,BYTE PTR [rbx]
    7bcc:	0c 0d                	or     al,0xd
    7bce:	0e                   	(bad)
    7bcf:	0f 0b                	ud2
    7bd1:	0c 02                	or     al,0x2
    7bd3:	03 04 05 06 07 08 09 	add    eax,DWORD PTR [rax*1+0x9080706]
    7bda:	0a 0b                	or     cl,BYTE PTR [rbx]
    7bdc:	0c 0d                	or     al,0xd
    7bde:	0e                   	(bad)
    7bdf:	0f 01 02             	sgdt   [rdx]
    7be2:	02 03                	add    al,BYTE PTR [rbx]
    7be4:	04 05                	add    al,0x5
    7be6:	06                   	(bad)
    7be7:	07                   	(bad)
    7be8:	08 09                	or     BYTE PTR [rcx],cl
    7bea:	0a 0b                	or     cl,BYTE PTR [rbx]
    7bec:	0c 0d                	or     al,0xd
    7bee:	0e                   	(bad)
    7bef:	0f 07                	sysretd
    7bf1:	08 02                	or     BYTE PTR [rdx],al
    7bf3:	03 04 05 06 07 08 09 	add    eax,DWORD PTR [rax*1+0x9080706]
    7bfa:	0a 0b                	or     cl,BYTE PTR [rbx]
    7bfc:	0c 0d                	or     al,0xd
    7bfe:	0e                   	(bad)
    7bff:	0f 0d 0e             	prefetchw BYTE PTR [rsi]
    7c02:	02 03                	add    al,BYTE PTR [rbx]
    7c04:	04 05                	add    al,0x5
    7c06:	06                   	(bad)
    7c07:	07                   	(bad)
    7c08:	08 09                	or     BYTE PTR [rcx],cl
    7c0a:	0a 0b                	or     cl,BYTE PTR [rbx]
    7c0c:	0c 0d                	or     al,0xd
    7c0e:	0e                   	(bad)
    7c0f:	0f 00 00             	sldt   WORD PTR [rax]
    7c12:	02 03                	add    al,BYTE PTR [rbx]
    7c14:	04 05                	add    al,0x5
    7c16:	06                   	(bad)
    7c17:	07                   	(bad)
    7c18:	80 80 80 80 80 80 80 	add    BYTE PTR [rax-0x7f7f7f80],0x80
    7c1f:	80 01 01             	add    BYTE PTR [rcx],0x1
    7c22:	02 03                	add    al,BYTE PTR [rbx]
    7c24:	04 05                	add    al,0x5
    7c26:	06                   	(bad)
    7c27:	07                   	(bad)
    7c28:	80 80 80 80 80 80 80 	add    BYTE PTR [rax-0x7f7f7f80],0x80
    7c2f:	80 02 80             	add    BYTE PTR [rdx],0x80
    7c32:	80 80 80 80 80 80 80 	add    BYTE PTR [rax-0x7f7f7f80],0x80
    7c39:	80 80 80 80 80 80 80 	add    BYTE PTR [rax-0x7f7f7f80],0x80
    7c40:	80 02 02             	add    BYTE PTR [rdx],0x2
    7c43:	03 04 05 06 07 80 80 	add    eax,DWORD PTR [rax*1-0x7f7ff8fa]
    7c4a:	80 80 80 80 80 80 03 	add    BYTE PTR [rax-0x7f7f7f80],0x3
    7c51:	80 80 80 80 80 80 80 	add    BYTE PTR [rax-0x7f7f7f80],0x80
    7c58:	80 80 80 80 80 80 80 	add    BYTE PTR [rax-0x7f7f7f80],0x80
    7c5f:	80 80 03 02 03 04 05 	add    BYTE PTR [rax+0x4030203],0x5
    7c66:	06                   	(bad)
    7c67:	07                   	(bad)
    7c68:	80 80 80 80 80 80 80 	add    BYTE PTR [rax-0x7f7f7f80],0x80
    7c6f:	80 04 80 80          	add    BYTE PTR [rax+rax*4],0x80
    7c73:	80 80 80 80 80 80 80 	add    BYTE PTR [rax-0x7f7f7f80],0x80
    7c7a:	80 80 80 80 80 80 80 	add    BYTE PTR [rax-0x7f7f7f80],0x80
    7c81:	04 02                	add    al,0x2
    7c83:	03 04 05 06 07 80 80 	add    eax,DWORD PTR [rax*1-0x7f7ff8fa]
    7c8a:	80 80 80 80 80 80 05 	add    BYTE PTR [rax-0x7f7f7f80],0x5
    7c91:	80 80 80 80 80 80 80 	add    BYTE PTR [rax-0x7f7f7f80],0x80
    7c98:	80 80 80 80 80 80 80 	add    BYTE PTR [rax-0x7f7f7f80],0x80
    7c9f:	80 80 05 02 03 04 05 	add    BYTE PTR [rax+0x4030205],0x5
    7ca6:	06                   	(bad)
    7ca7:	07                   	(bad)
    7ca8:	80 80 80 80 80 80 80 	add    BYTE PTR [rax-0x7f7f7f80],0x80
    7caf:	80 06 80             	add    BYTE PTR [rsi],0x80
    7cb2:	80 80 80 80 80 80 80 	add    BYTE PTR [rax-0x7f7f7f80],0x80
    7cb9:	80 80 80 80 80 80 80 	add    BYTE PTR [rax-0x7f7f7f80],0x80
    7cc0:	80 06 02             	add    BYTE PTR [rsi],0x2
    7cc3:	03 04 05 06 07 80 80 	add    eax,DWORD PTR [rax*1-0x7f7ff8fa]
    7cca:	80 80 80 80 80 80 07 	add    BYTE PTR [rax-0x7f7f7f80],0x7
    7cd1:	80 80 80 80 80 80 80 	add    BYTE PTR [rax-0x7f7f7f80],0x80
    7cd8:	80 80 80 80 80 80 80 	add    BYTE PTR [rax-0x7f7f7f80],0x80
    7cdf:	80 80 07 02 03 04 05 	add    BYTE PTR [rax+0x4030207],0x5
    7ce6:	06                   	(bad)
    7ce7:	07                   	(bad)
    7ce8:	80 80 80 80 80 80 80 	add    BYTE PTR [rax-0x7f7f7f80],0x80
    7cef:	80 ff 00             	cmp    bh,0x0
    7cf2:	ff 00                	inc    DWORD PTR [rax]
    7cf4:	ff 00                	inc    DWORD PTR [rax]
    7cf6:	ff 00                	inc    DWORD PTR [rax]
    7cf8:	ff                   	(bad)
    7cf9:	ff                   	(bad)
    7cfa:	ff                   	(bad)
    7cfb:	ff                   	(bad)
    7cfc:	ff                   	(bad)
    7cfd:	ff                   	(bad)
    7cfe:	ff                   	(bad)
    7cff:	ff 00                	inc    DWORD PTR [rax]
    7d01:	ff 00                	inc    DWORD PTR [rax]
    7d03:	00 00                	add    BYTE PTR [rax],al
    7d05:	00 00                	add    BYTE PTR [rax],al
    7d07:	00 00                	add    BYTE PTR [rax],al
    7d09:	ff                   	(bad)
    7d0a:	ff                   	(bad)
    7d0b:	ff                   	(bad)
    7d0c:	ff                   	(bad)
    7d0d:	ff                   	(bad)
    7d0e:	ff                   	(bad)
    7d0f:	ff 02                	inc    DWORD PTR [rdx]
    7d11:	53                   	push   rbx
    7d12:	65 74 74             	gs je  7d89 <vtt_putchar_at+0x629>
    7d15:	69 6e 67 20 75 70 20 	imul   ebp,DWORD PTR [rsi+0x67],0x20707520
    7d1c:	49                   	rex.WB
    7d1d:	44 54                	rex.R push rsp
    7d1f:	2e 2e 2e 20 00       	cs cs cs and BYTE PTR [rax],al
    7d24:	66 2e 0f 1f 84 00 00 	cs nop WORD PTR [rax+rax*1+0x0]
    7d2b:	00 00 00 
    7d2e:	66 90                	xchg   ax,ax
    7d30:	ff                   	(bad)
    7d31:	ff 00                	inc    DWORD PTR [rax]
    7d33:	00 ff                	add    bh,bh
    7d35:	ff 00                	inc    DWORD PTR [rax]
    7d37:	00 ff                	add    bh,bh
    7d39:	ff 00                	inc    DWORD PTR [rax]
    7d3b:	00 ff                	add    bh,bh
    7d3d:	ff 00                	inc    DWORD PTR [rax]
    7d3f:	00 02                	add    BYTE PTR [rdx],al
    7d41:	55                   	push   rbp
    7d42:	6e                   	outs   dx,BYTE PTR ds:[rsi]
    7d43:	68 61 6e 64 6c       	push   0x6c646e61
    7d48:	65 64 20 40 20       	gs and BYTE PTR fs:[rax+0x20],al
    7d4d:	72 69                	jb     7db8 <vtt_putchar_at+0x658>
    7d4f:	70 20                	jo     7d71 <vtt_putchar_at+0x611>
    7d51:	3d 20 30 78 25       	cmp    eax,0x25783020
    7d56:	78 0a                	js     7d62 <vtt_putchar_at+0x602>
    7d58:	00 02                	add    BYTE PTR [rdx],al
    7d5a:	52                   	push   rdx
    7d5b:	65 67 69 73 74 72 79 	imul   esi,DWORD PTR gs:[ebx+0x74],0x64207972
    7d62:	20 64 
    7d64:	75 6d                	jne    7dd3 <vtt_putchar_at+0x673>
    7d66:	70 21                	jo     7d89 <vtt_putchar_at+0x629>
    7d68:	20 5b 2e             	and    BYTE PTR [rbx+0x2e],bl
    7d6b:	2e 2e 5d             	cs cs pop rbp
    7d6e:	0a 00                	or     al,BYTE PTR [rax]
    7d70:	02 23                	add    ah,BYTE PTR [rbx]
    7d72:	44                   	rex.R
    7d73:	42 20 44 45 42       	and    BYTE PTR [rbp+r8*2+0x42],al
    7d78:	55                   	push   rbp
    7d79:	47 20 40 20          	rex.RXB and BYTE PTR [r8+0x20],r8b
    7d7d:	72 69                	jb     7de8 <vtt_putchar_at+0x688>
    7d7f:	70 20                	jo     7da1 <vtt_putchar_at+0x641>
    7d81:	3d 20 30 78 25       	cmp    eax,0x25783020
    7d86:	78 0a                	js     7d92 <vtt_putchar_at+0x632>
    7d88:	00 02                	add    BYTE PTR [rdx],al
    7d8a:	23 42 50             	and    eax,DWORD PTR [rdx+0x50]
    7d8d:	20 42 52             	and    BYTE PTR [rdx+0x52],al
    7d90:	45                   	rex.RB
    7d91:	41                   	rex.B
    7d92:	4b 50                	rex.WXB push r8
    7d94:	4f                   	rex.WRXB
    7d95:	49                   	rex.WB
    7d96:	4e 54                	rex.WRX push rsp
    7d98:	20 40 20             	and    BYTE PTR [rax+0x20],al
    7d9b:	72 69                	jb     7e06 <vtt_putchar_at+0x6a6>
    7d9d:	70 20                	jo     7dbf <vtt_putchar_at+0x65f>
    7d9f:	3d 20 30 78 25       	cmp    eax,0x25783020
    7da4:	78 0a                	js     7db0 <vtt_putchar_at+0x650>
    7da6:	00 01                	add    BYTE PTR [rcx],al
    7da8:	43 6f                	rex.XB outs dx,DWORD PTR ds:[rsi]
    7daa:	6e                   	outs   dx,BYTE PTR ds:[rsi]
    7dab:	74 69                	je     7e16 <vtt_putchar_at+0x6b6>
    7dad:	6e                   	outs   dx,BYTE PTR ds:[rsi]
    7dae:	75 69                	jne    7e19 <vtt_putchar_at+0x6b9>
    7db0:	6e                   	outs   dx,BYTE PTR ds:[rsi]
    7db1:	67 21 0a             	and    DWORD PTR [edx],ecx
    7db4:	00 02                	add    BYTE PTR [rdx],al
    7db6:	23 4f 46             	and    ecx,DWORD PTR [rdi+0x46]
    7db9:	20 4f 56             	and    BYTE PTR [rdi+0x56],cl
    7dbc:	45 52                	rex.RB push r10
    7dbe:	46                   	rex.RX
    7dbf:	4c                   	rex.WR
    7dc0:	4f 57                	rex.WRXB push r15
    7dc2:	20 40 20             	and    BYTE PTR [rax+0x20],al
    7dc5:	72 69                	jb     7e30 <vtt_putchar_at+0x6d0>
    7dc7:	70 20                	jo     7de9 <vtt_putchar_at+0x689>
    7dc9:	3d 20 30 78 25       	cmp    eax,0x25783020
    7dce:	78 0a                	js     7dda <vtt_putchar_at+0x67a>
    7dd0:	00 02                	add    BYTE PTR [rdx],al
    7dd2:	0a 43 53             	or     al,BYTE PTR [rbx+0x53]
    7dd5:	4f 5f                	rex.WRXB pop r15
    7dd7:	4f                   	rex.WRXB
    7dd8:	4c                   	rex.WR
    7dd9:	44 20 40 20          	and    BYTE PTR [rax+0x20],r8b
    7ddd:	72 69                	jb     7e48 <vtt_putchar_at+0x6e8>
    7ddf:	70 20                	jo     7e01 <vtt_putchar_at+0x6a1>
    7de1:	3d 20 30 78 25       	cmp    eax,0x25783020
    7de6:	78 0a                	js     7df2 <vtt_putchar_at+0x692>
    7de8:	00 02                	add    BYTE PTR [rdx],al
    7dea:	23 50 46             	and    edx,DWORD PTR [rax+0x46]
    7ded:	20 50 41             	and    BYTE PTR [rax+0x41],dl
    7df0:	47                   	rex.RXB
    7df1:	45 5f                	rex.RB pop r15
    7df3:	46                   	rex.RX
    7df4:	41 55                	push   r13
    7df6:	4c 54                	rex.WR push rsp
    7df8:	20 40 20             	and    BYTE PTR [rax+0x20],al
    7dfb:	72 69                	jb     7e66 <vtt_putchar_at+0x706>
    7dfd:	70 20                	jo     7e1f <vtt_putchar_at+0x6bf>
    7dff:	3d 20 30 78 25       	cmp    eax,0x25783020
    7e04:	78 0a                	js     7e10 <vtt_putchar_at+0x6b0>
    7e06:	00 90 02 23 44 45    	add    BYTE PTR [rax+0x45442302],dl
    7e0c:	20 44 49 56          	and    BYTE PTR [rcx+rcx*2+0x56],al
    7e10:	49 53                	rex.WB push r11
    7e12:	49                   	rex.WB
    7e13:	4f                   	rex.WRXB
    7e14:	4e 5f                	rex.WRX pop rdi
    7e16:	45 52                	rex.RB push r10
    7e18:	52                   	push   rdx
    7e19:	4f 52                	rex.WRXB push r10
    7e1b:	20 40 20             	and    BYTE PTR [rax+0x20],al
    7e1e:	72 69                	jb     7e89 <vtt_putchar_at+0x729>
    7e20:	70 20                	jo     7e42 <vtt_putchar_at+0x6e2>
    7e22:	3d 20 30 78 25       	cmp    eax,0x25783020
    7e27:	78 0a                	js     7e33 <vtt_putchar_at+0x6d3>
    7e29:	00 00                	add    BYTE PTR [rax],al
    7e2b:	00 00                	add    BYTE PTR [rax],al
    7e2d:	00 00                	add    BYTE PTR [rax],al
    7e2f:	00 02                	add    BYTE PTR [rdx],al
    7e31:	0a 4e 4f             	or     cl,BYTE PTR [rsi+0x4f]
    7e34:	4e 5f                	rex.WRX pop rdi
    7e36:	4d                   	rex.WRB
    7e37:	41 53                	push   r11
    7e39:	4b                   	rex.WXB
    7e3a:	41                   	rex.B
    7e3b:	42                   	rex.X
    7e3c:	4c                   	rex.WR
    7e3d:	45 5f                	rex.RB pop r15
    7e3f:	49                   	rex.WB
    7e40:	4e 54                	rex.WRX push rsp
    7e42:	45 52                	rex.RB push r10
    7e44:	52                   	push   rdx
    7e45:	55                   	push   rbp
    7e46:	50                   	push   rax
    7e47:	54                   	push   rsp
    7e48:	20 40 20             	and    BYTE PTR [rax+0x20],al
    7e4b:	72 69                	jb     7eb6 <vtt_putchar_at+0x756>
    7e4d:	70 20                	jo     7e6f <vtt_putchar_at+0x70f>
    7e4f:	3d 20 30 78 25       	cmp    eax,0x25783020
    7e54:	78 0a                	js     7e60 <vtt_putchar_at+0x700>
    7e56:	00 00                	add    BYTE PTR [rax],al
    7e58:	02 23                	add    ah,BYTE PTR [rbx]
    7e5a:	42 52                	rex.X push rdx
    7e5c:	20 42 4f             	and    BYTE PTR [rdx+0x4f],al
    7e5f:	55                   	push   rbp
    7e60:	4e                   	rex.WRX
    7e61:	44 5f                	rex.R pop rdi
    7e63:	52                   	push   rdx
    7e64:	41                   	rex.B
    7e65:	4e                   	rex.WRX
    7e66:	47                   	rex.RXB
    7e67:	45 5f                	rex.RB pop r15
    7e69:	45 58                	rex.RB pop r8
    7e6b:	43                   	rex.XB
    7e6c:	45                   	rex.RB
    7e6d:	45                   	rex.RB
    7e6e:	44                   	rex.R
    7e6f:	45                   	rex.RB
    7e70:	44 20 40 20          	and    BYTE PTR [rax+0x20],r8b
    7e74:	72 69                	jb     7edf <vtt_putchar_at+0x77f>
    7e76:	70 20                	jo     7e98 <vtt_putchar_at+0x738>
    7e78:	3d 20 30 78 25       	cmp    eax,0x25783020
    7e7d:	78 0a                	js     7e89 <vtt_putchar_at+0x729>
    7e7f:	00 02                	add    BYTE PTR [rdx],al
    7e81:	23 55 44             	and    edx,DWORD PTR [rbp+0x44]
    7e84:	20 49 4e             	and    BYTE PTR [rcx+0x4e],cl
    7e87:	56                   	push   rsi
    7e88:	41                   	rex.B
    7e89:	4c                   	rex.WR
    7e8a:	49                   	rex.WB
    7e8b:	44 5f                	rex.R pop rdi
    7e8d:	4f 50                	rex.WRXB push r8
    7e8f:	43                   	rex.XB
    7e90:	4f                   	rex.WRXB
    7e91:	44                   	rex.R
    7e92:	45 20 40 20          	and    BYTE PTR [r8+0x20],r8b
    7e96:	72 69                	jb     7f01 <vtt_putchar_at+0x7a1>
    7e98:	70 20                	jo     7eba <vtt_putchar_at+0x75a>
    7e9a:	3d 20 30 78 25       	cmp    eax,0x25783020
    7e9f:	78 0a                	js     7eab <vtt_putchar_at+0x74b>
    7ea1:	00 00                	add    BYTE PTR [rax],al
    7ea3:	00 00                	add    BYTE PTR [rax],al
    7ea5:	00 00                	add    BYTE PTR [rax],al
    7ea7:	00 02                	add    BYTE PTR [rdx],al
    7ea9:	23 4e 4d             	and    ecx,DWORD PTR [rsi+0x4d]
    7eac:	20 44 45 56          	and    BYTE PTR [rbp+rax*2+0x56],al
    7eb0:	49                   	rex.WB
    7eb1:	43                   	rex.XB
    7eb2:	45 5f                	rex.RB pop r15
    7eb4:	4e                   	rex.WRX
    7eb5:	4f 54                	rex.WRXB push r12
    7eb7:	5f                   	pop    rdi
    7eb8:	41 56                	push   r14
    7eba:	41                   	rex.B
    7ebb:	49                   	rex.WB
    7ebc:	4c                   	rex.WR
    7ebd:	41                   	rex.B
    7ebe:	42                   	rex.X
    7ebf:	4c                   	rex.WR
    7ec0:	45 20 40 20          	and    BYTE PTR [r8+0x20],r8b
    7ec4:	72 69                	jb     7f2f <vtt_putchar_at+0x7cf>
    7ec6:	70 20                	jo     7ee8 <vtt_putchar_at+0x788>
    7ec8:	3d 20 30 78 25       	cmp    eax,0x25783020
    7ecd:	78 0a                	js     7ed9 <vtt_putchar_at+0x779>
    7ecf:	00 02                	add    BYTE PTR [rdx],al
    7ed1:	23 44 46 20          	and    eax,DWORD PTR [rsi+rax*2+0x20]
    7ed5:	44                   	rex.R
    7ed6:	4f 55                	rex.WRXB push r13
    7ed8:	42                   	rex.X
    7ed9:	4c                   	rex.WR
    7eda:	45 5f                	rex.RB pop r15
    7edc:	46                   	rex.RX
    7edd:	41 55                	push   r13
    7edf:	4c 54                	rex.WR push rsp
    7ee1:	20 40 20             	and    BYTE PTR [rax+0x20],al
    7ee4:	72 69                	jb     7f4f <vtt_putchar_at+0x7ef>
    7ee6:	70 20                	jo     7f08 <vtt_putchar_at+0x7a8>
    7ee8:	3d 20 30 78 25       	cmp    eax,0x25783020
    7eed:	78 0a                	js     7ef9 <vtt_putchar_at+0x799>
    7eef:	00 02                	add    BYTE PTR [rdx],al
    7ef1:	23 54 53 20          	and    edx,DWORD PTR [rbx+rdx*2+0x20]
    7ef5:	49                   	rex.WB
    7ef6:	4e 56                	rex.WRX push rsi
    7ef8:	41                   	rex.B
    7ef9:	4c                   	rex.WR
    7efa:	49                   	rex.WB
    7efb:	44 5f                	rex.R pop rdi
    7efd:	54                   	push   rsp
    7efe:	53                   	push   rbx
    7eff:	53                   	push   rbx
    7f00:	20 40 20             	and    BYTE PTR [rax+0x20],al
    7f03:	72 69                	jb     7f6e <vtt_putchar_at+0x80e>
    7f05:	70 20                	jo     7f27 <vtt_putchar_at+0x7c7>
    7f07:	3d 20 30 78 25       	cmp    eax,0x25783020
    7f0c:	78 0a                	js     7f18 <vtt_putchar_at+0x7b8>
    7f0e:	00 00                	add    BYTE PTR [rax],al
    7f10:	02 23                	add    ah,BYTE PTR [rbx]
    7f12:	4e 50                	rex.WRX push rax
    7f14:	20 53 45             	and    BYTE PTR [rbx+0x45],dl
    7f17:	47                   	rex.RXB
    7f18:	4d                   	rex.WRB
    7f19:	45                   	rex.RB
    7f1a:	4e 54                	rex.WRX push rsp
    7f1c:	5f                   	pop    rdi
    7f1d:	4e                   	rex.WRX
    7f1e:	4f 54                	rex.WRXB push r12
    7f20:	5f                   	pop    rdi
    7f21:	50                   	push   rax
    7f22:	52                   	push   rdx
    7f23:	45 53                	rex.RB push r11
    7f25:	45                   	rex.RB
    7f26:	4e 54                	rex.WRX push rsp
    7f28:	20 40 20             	and    BYTE PTR [rax+0x20],al
    7f2b:	72 69                	jb     7f96 <vtt_putchar_at+0x836>
    7f2d:	70 20                	jo     7f4f <vtt_putchar_at+0x7ef>
    7f2f:	3d 20 30 78 25       	cmp    eax,0x25783020
    7f34:	78 0a                	js     7f40 <vtt_putchar_at+0x7e0>
    7f36:	00 00                	add    BYTE PTR [rax],al
    7f38:	02 23                	add    ah,BYTE PTR [rbx]
    7f3a:	53                   	push   rbx
    7f3b:	53                   	push   rbx
    7f3c:	20 53 54             	and    BYTE PTR [rbx+0x54],dl
    7f3f:	41                   	rex.B
    7f40:	43                   	rex.XB
    7f41:	4b 5f                	rex.WXB pop r15
    7f43:	53                   	push   rbx
    7f44:	45                   	rex.RB
    7f45:	47                   	rex.RXB
    7f46:	4d                   	rex.WRB
    7f47:	45                   	rex.RB
    7f48:	4e 54                	rex.WRX push rsp
    7f4a:	5f                   	pop    rdi
    7f4b:	46                   	rex.RX
    7f4c:	41 55                	push   r13
    7f4e:	4c 54                	rex.WR push rsp
    7f50:	20 40 20             	and    BYTE PTR [rax+0x20],al
    7f53:	72 69                	jb     7fbe <vtt_putchar_at+0x85e>
    7f55:	70 20                	jo     7f77 <vtt_putchar_at+0x817>
    7f57:	3d 20 30 78 25       	cmp    eax,0x25783020
    7f5c:	78 0a                	js     7f68 <vtt_putchar_at+0x808>
    7f5e:	00 00                	add    BYTE PTR [rax],al
    7f60:	02 23                	add    ah,BYTE PTR [rbx]
    7f62:	47 50                	rex.RXB push r8
    7f64:	20 47 45             	and    BYTE PTR [rdi+0x45],al
    7f67:	4e                   	rex.WRX
    7f68:	45 52                	rex.RB push r10
    7f6a:	41                   	rex.B
    7f6b:	4c 5f                	rex.WR pop rdi
    7f6d:	50                   	push   rax
    7f6e:	52                   	push   rdx
    7f6f:	4f 54                	rex.WRXB push r12
    7f71:	45                   	rex.RB
    7f72:	43 54                	rex.XB push r12
    7f74:	49                   	rex.WB
    7f75:	4f                   	rex.WRXB
    7f76:	4e 5f                	rex.WRX pop rdi
    7f78:	46                   	rex.RX
    7f79:	41 55                	push   r13
    7f7b:	4c 54                	rex.WR push rsp
    7f7d:	20 40 20             	and    BYTE PTR [rax+0x20],al
    7f80:	72 69                	jb     7feb <vtt_putchar_at+0x88b>
    7f82:	70 20                	jo     7fa4 <vtt_putchar_at+0x844>
    7f84:	3d 20 30 78 25       	cmp    eax,0x25783020
    7f89:	78 0a                	js     7f95 <vtt_putchar_at+0x835>
    7f8b:	00 00                	add    BYTE PTR [rax],al
    7f8d:	00 00                	add    BYTE PTR [rax],al
    7f8f:	00 02                	add    BYTE PTR [rdx],al
    7f91:	23 4d 46             	and    ecx,DWORD PTR [rbp+0x46]
    7f94:	20 58 38             	and    BYTE PTR [rax+0x38],bl
    7f97:	37                   	(bad)
    7f98:	5f                   	pop    rdi
    7f99:	46                   	rex.RX
    7f9a:	4c                   	rex.WR
    7f9b:	4f                   	rex.WRXB
    7f9c:	41 54                	push   r12
    7f9e:	49                   	rex.WB
    7f9f:	4e                   	rex.WRX
    7fa0:	47 5f                	rex.RXB pop r15
    7fa2:	50                   	push   rax
    7fa3:	4f                   	rex.WRXB
    7fa4:	49                   	rex.WB
    7fa5:	4e 54                	rex.WRX push rsp
    7fa7:	5f                   	pop    rdi
    7fa8:	45 58                	rex.RB pop r8
    7faa:	43                   	rex.XB
    7fab:	45 50                	rex.RB push r8
    7fad:	54                   	push   rsp
    7fae:	49                   	rex.WB
    7faf:	4f                   	rex.WRXB
    7fb0:	4e 20 40 20          	rex.WRX and BYTE PTR [rax+0x20],r8b
    7fb4:	72 69                	jb     801f <vtt_putchar_at+0x8bf>
    7fb6:	70 20                	jo     7fd8 <vtt_putchar_at+0x878>
    7fb8:	3d 20 30 78 25       	cmp    eax,0x25783020
    7fbd:	78 0a                	js     7fc9 <vtt_putchar_at+0x869>
    7fbf:	00 02                	add    BYTE PTR [rdx],al
    7fc1:	23 41 43             	and    eax,DWORD PTR [rcx+0x43]
    7fc4:	20 41 4c             	and    BYTE PTR [rcx+0x4c],al
    7fc7:	49                   	rex.WB
    7fc8:	47                   	rex.RXB
    7fc9:	4e                   	rex.WRX
    7fca:	4d                   	rex.WRB
    7fcb:	45                   	rex.RB
    7fcc:	4e 54                	rex.WRX push rsp
    7fce:	5f                   	pop    rdi
    7fcf:	43                   	rex.XB
    7fd0:	48                   	rex.W
    7fd1:	45                   	rex.RB
    7fd2:	43                   	rex.XB
    7fd3:	4b 20 40 20          	rex.WXB and BYTE PTR [r8+0x20],al
    7fd7:	72 69                	jb     8042 <vtt_putchar_at+0x8e2>
    7fd9:	70 20                	jo     7ffb <vtt_putchar_at+0x89b>
    7fdb:	3d 20 30 78 25       	cmp    eax,0x25783020
    7fe0:	78 0a                	js     7fec <vtt_putchar_at+0x88c>
    7fe2:	00 00                	add    BYTE PTR [rax],al
    7fe4:	00 00                	add    BYTE PTR [rax],al
    7fe6:	00 00                	add    BYTE PTR [rax],al
    7fe8:	02 23                	add    ah,BYTE PTR [rbx]
    7fea:	4d                   	rex.WRB
    7feb:	43 20 4d 41          	rex.XB and BYTE PTR [r13+0x41],cl
    7fef:	43                   	rex.XB
    7ff0:	48                   	rex.W
    7ff1:	49                   	rex.WB
    7ff2:	4e                   	rex.WRX
    7ff3:	45 5f                	rex.RB pop r15
    7ff5:	43                   	rex.XB
    7ff6:	48                   	rex.W
    7ff7:	45                   	rex.RB
    7ff8:	43                   	rex.XB
    7ff9:	4b 20 40 20          	rex.WXB and BYTE PTR [r8+0x20],al
    7ffd:	72 69                	jb     8068 <vtt_putchar_at+0x908>
    7fff:	70 20                	jo     8021 <vtt_putchar_at+0x8c1>
    8001:	3d 20 30 78 25       	cmp    eax,0x25783020
    8006:	78 0a                	js     8012 <vtt_putchar_at+0x8b2>
	...
    8010:	02 23                	add    ah,BYTE PTR [rbx]
    8012:	58                   	pop    rax
    8013:	4d 20 53 49          	rex.WRB and BYTE PTR [r11+0x49],r10b
    8017:	4d                   	rex.WRB
    8018:	44 5f                	rex.R pop rdi
    801a:	46                   	rex.RX
    801b:	4c                   	rex.WR
    801c:	4f                   	rex.WRXB
    801d:	41 54                	push   r12
    801f:	49                   	rex.WB
    8020:	4e                   	rex.WRX
    8021:	47 5f                	rex.RXB pop r15
    8023:	50                   	push   rax
    8024:	4f                   	rex.WRXB
    8025:	49                   	rex.WB
    8026:	4e 54                	rex.WRX push rsp
    8028:	5f                   	pop    rdi
    8029:	45 58                	rex.RB pop r8
    802b:	43                   	rex.XB
    802c:	45 50                	rex.RB push r8
    802e:	54                   	push   rsp
    802f:	49                   	rex.WB
    8030:	4f                   	rex.WRXB
    8031:	4e 20 40 20          	rex.WRX and BYTE PTR [rax+0x20],r8b
    8035:	72 69                	jb     80a0 <vtt_putchar_at+0x940>
    8037:	70 20                	jo     8059 <vtt_putchar_at+0x8f9>
    8039:	3d 20 30 78 25       	cmp    eax,0x25783020
    803e:	78 0a                	js     804a <vtt_putchar_at+0x8ea>
	...
    8048:	02 23                	add    ah,BYTE PTR [rbx]
    804a:	56                   	push   rsi
    804b:	45 20 56 49          	and    BYTE PTR [r14+0x49],r10b
    804f:	52                   	push   rdx
    8050:	54                   	push   rsp
    8051:	55                   	push   rbp
    8052:	41                   	rex.B
    8053:	4c                   	rex.WR
    8054:	49 5a                	rex.WB pop r10
    8056:	41 54                	push   r12
    8058:	49                   	rex.WB
    8059:	4f                   	rex.WRXB
    805a:	4e 5f                	rex.WRX pop rdi
    805c:	45 58                	rex.RB pop r8
    805e:	43                   	rex.XB
    805f:	45 50                	rex.RB push r8
    8061:	54                   	push   rsp
    8062:	49                   	rex.WB
    8063:	4f                   	rex.WRXB
    8064:	4e 20 40 20          	rex.WRX and BYTE PTR [rax+0x20],r8b
    8068:	72 69                	jb     80d3 <vtt_putchar_at+0x973>
    806a:	70 20                	jo     808c <vtt_putchar_at+0x92c>
    806c:	3d 20 30 78 25       	cmp    eax,0x25783020
    8071:	78 0a                	js     807d <vtt_putchar_at+0x91d>
    8073:	00 00                	add    BYTE PTR [rax],al
    8075:	00 00                	add    BYTE PTR [rax],al
    8077:	00 02                	add    BYTE PTR [rdx],al
    8079:	23 43 50             	and    eax,DWORD PTR [rbx+0x50]
    807c:	20 43 4f             	and    BYTE PTR [rbx+0x4f],al
    807f:	4e 54                	rex.WRX push rsp
    8081:	52                   	push   rdx
    8082:	4f                   	rex.WRXB
    8083:	4c 5f                	rex.WR pop rdi
    8085:	50                   	push   rax
    8086:	52                   	push   rdx
    8087:	4f 54                	rex.WRXB push r12
    8089:	45                   	rex.RB
    808a:	43 54                	rex.XB push r12
    808c:	49                   	rex.WB
    808d:	4f                   	rex.WRXB
    808e:	4e 5f                	rex.WRX pop rdi
    8090:	45 58                	rex.RB pop r8
    8092:	43                   	rex.XB
    8093:	45 50                	rex.RB push r8
    8095:	54                   	push   rsp
    8096:	49                   	rex.WB
    8097:	4f                   	rex.WRXB
    8098:	4e 20 40 20          	rex.WRX and BYTE PTR [rax+0x20],r8b
    809c:	72 69                	jb     8107 <vtt_putchar_at+0x9a7>
    809e:	70 20                	jo     80c0 <vtt_putchar_at+0x960>
    80a0:	3d 20 30 78 25       	cmp    eax,0x25783020
    80a5:	78 0a                	js     80b1 <vtt_putchar_at+0x951>
    80a7:	00 02                	add    BYTE PTR [rdx],al
    80a9:	23 48 56             	and    ecx,DWORD PTR [rax+0x56]
    80ac:	20 48 59             	and    BYTE PTR [rax+0x59],cl
    80af:	50                   	push   rax
    80b0:	45 52                	rex.RB push r10
    80b2:	56                   	push   rsi
    80b3:	49 53                	rex.WB push r11
    80b5:	4f 52                	rex.WRXB push r10
    80b7:	5f                   	pop    rdi
    80b8:	49                   	rex.WB
    80b9:	4e                   	rex.WRX
    80ba:	4a                   	rex.WX
    80bb:	45                   	rex.RB
    80bc:	43 54                	rex.XB push r12
    80be:	49                   	rex.WB
    80bf:	4f                   	rex.WRXB
    80c0:	4e 5f                	rex.WRX pop rdi
    80c2:	45 58                	rex.RB pop r8
    80c4:	43                   	rex.XB
    80c5:	45 50                	rex.RB push r8
    80c7:	54                   	push   rsp
    80c8:	49                   	rex.WB
    80c9:	4f                   	rex.WRXB
    80ca:	4e 20 40 20          	rex.WRX and BYTE PTR [rax+0x20],r8b
    80ce:	72 69                	jb     8139 <vtt_putchar_at+0x9d9>
    80d0:	70 20                	jo     80f2 <vtt_putchar_at+0x992>
    80d2:	3d 20 30 78 25       	cmp    eax,0x25783020
    80d7:	78 0a                	js     80e3 <vtt_putchar_at+0x983>
    80d9:	00 00                	add    BYTE PTR [rax],al
    80db:	00 00                	add    BYTE PTR [rax],al
    80dd:	00 00                	add    BYTE PTR [rax],al
    80df:	00 02                	add    BYTE PTR [rdx],al
    80e1:	23 56 43             	and    edx,DWORD PTR [rsi+0x43]
    80e4:	20 56 4d             	and    BYTE PTR [rsi+0x4d],dl
    80e7:	4d 5f                	rex.WRB pop r15
    80e9:	43                   	rex.XB
    80ea:	4f                   	rex.WRXB
    80eb:	4d                   	rex.WRB
    80ec:	4d 55                	rex.WRB push r13
    80ee:	4e                   	rex.WRX
    80ef:	49                   	rex.WB
    80f0:	43                   	rex.XB
    80f1:	41 54                	push   r12
    80f3:	49                   	rex.WB
    80f4:	4f                   	rex.WRXB
    80f5:	4e 5f                	rex.WRX pop rdi
    80f7:	45 58                	rex.RB pop r8
    80f9:	43                   	rex.XB
    80fa:	45 50                	rex.RB push r8
    80fc:	54                   	push   rsp
    80fd:	49                   	rex.WB
    80fe:	4f                   	rex.WRXB
    80ff:	4e 20 40 20          	rex.WRX and BYTE PTR [rax+0x20],r8b
    8103:	72 69                	jb     816e <vtt_putchar_at+0xa0e>
    8105:	70 20                	jo     8127 <vtt_putchar_at+0x9c7>
    8107:	3d 20 30 78 25       	cmp    eax,0x25783020
    810c:	78 0a                	js     8118 <vtt_putchar_at+0x9b8>
    810e:	00 00                	add    BYTE PTR [rax],al
    8110:	02 23                	add    ah,BYTE PTR [rbx]
    8112:	53                   	push   rbx
    8113:	58                   	pop    rax
    8114:	20 53 45             	and    BYTE PTR [rbx+0x45],dl
    8117:	43 55                	rex.XB push r13
    8119:	52                   	push   rdx
    811a:	49 54                	rex.WB push r12
    811c:	59                   	pop    rcx
    811d:	5f                   	pop    rdi
    811e:	45 58                	rex.RB pop r8
    8120:	43                   	rex.XB
    8121:	45 50                	rex.RB push r8
    8123:	54                   	push   rsp
    8124:	49                   	rex.WB
    8125:	4f                   	rex.WRXB
    8126:	4e 20 40 20          	rex.WRX and BYTE PTR [rax+0x20],r8b
    812a:	72 69                	jb     8195 <vtt_putchar_at+0xa35>
    812c:	70 20                	jo     814e <vtt_putchar_at+0x9ee>
    812e:	3d 20 30 78 25       	cmp    eax,0x25783020
    8133:	78 0a                	js     813f <vtt_putchar_at+0x9df>
    8135:	00 02                	add    BYTE PTR [rdx],al
    8137:	2d 2d 2d 20 53       	sub    eax,0x53202d2d
    813c:	65 74 75             	gs je  81b4 <vtt_putchar_at+0xa54>
    813f:	70 20                	jo     8161 <vtt_putchar_at+0xa01>
    8141:	63 6f 6d             	movsxd ebp,DWORD PTR [rdi+0x6d]
    8144:	70 6c                	jo     81b2 <vtt_putchar_at+0xa52>
    8146:	65 74 65             	gs je  81ae <vtt_putchar_at+0xa4e>
    8149:	20 2d 2d 2d 0a 00    	and    BYTE PTR [rip+0xa2d2d],ch        # aae7c <_k_end+0x17a54>
    814f:	02 52 61             	add    dl,BYTE PTR [rdx+0x61]
    8152:	6e                   	outs   dx,BYTE PTR ds:[rsi]
    8153:	64 6f                	outs   dx,DWORD PTR fs:[rsi]
    8155:	6d                   	ins    DWORD PTR es:[rdi],dx
    8156:	20 73 65             	and    BYTE PTR [rbx+0x65],dh
    8159:	65 64 3a 20          	gs cmp ah,BYTE PTR fs:[rax]
    815d:	25 64 0a 00 31       	and    eax,0x31000a64
    8162:	33 2e                	xor    ebp,DWORD PTR [rsi]
    8164:	31 2e                	xor    DWORD PTR [rsi],ebp
    8166:	31 00                	xor    DWORD PTR [rax],eax
    8168:	46 72 69             	rex.RX jb 81d4 <vtt_putchar_at+0xa74>
    816b:	20 4a 75             	and    BYTE PTR [rdx+0x75],cl
    816e:	6c                   	ins    BYTE PTR es:[rdi],dx
    816f:	20 20                	and    BYTE PTR [rax],ah
    8171:	37                   	(bad)
    8172:	20 32                	and    BYTE PTR [rdx],dh
    8174:	33 3a                	xor    edi,DWORD PTR [rdx]
    8176:	34 36                	xor    al,0x36
    8178:	3a 32                	cmp    dh,BYTE PTR [rdx]
    817a:	35 20 32 30 32       	xor    eax,0x32303220
    817f:	33 00                	xor    eax,DWORD PTR [rax]
    8181:	56                   	push   rsi
    8182:	69 72 74 75 61 6c 45 	imul   esi,DWORD PTR [rdx+0x74],0x456c6175
    8189:	78 63                	js     81ee <vtt_putchar_at+0xa8e>
    818b:	65 70 74             	gs jo  8202 <vtt_putchar_at+0xaa2>
    818e:	69 6f 6e 00 78 38 36 	imul   ebp,DWORD PTR [rdi+0x6e],0x36387800
    8195:	5f                   	pop    rdi
    8196:	36 34 00             	ss xor al,0x0
    8199:	30 2e                	xor    BYTE PTR [rsi],ch
    819b:	39 2e                	cmp    DWORD PTR [rsi],ebp
    819d:	35 38 00 02 52       	xor    eax,0x52020038
    81a2:	65 62                	gs (bad)
    81a4:	6f                   	outs   dx,DWORD PTR ds:[rsi]
    81a5:	6f                   	outs   dx,DWORD PTR ds:[rsi]
    81a6:	74 69                	je     8211 <vtt_putchar_at+0xab1>
    81a8:	6e                   	outs   dx,BYTE PTR ds:[rsi]
    81a9:	67 20 69 6e          	and    BYTE PTR [ecx+0x6e],ch
    81ad:	20 32                	and    BYTE PTR [rdx],dh
    81af:	2e 2e 2e 20 00       	cs cs cs and BYTE PTR [rax],al
    81b4:	01 31                	add    DWORD PTR [rcx],esi
    81b6:	2e 2e 2e 20 00       	cs cs cs and BYTE PTR [rax],al
    81bb:	0f 1f 44 00 00       	nop    DWORD PTR [rax+rax*1+0x0]
    81c0:	02 4b 65             	add    cl,BYTE PTR [rbx+0x65]
    81c3:	72 6e                	jb     8233 <vtt_putchar_at+0xad3>
    81c5:	65 6c                	gs ins BYTE PTR es:[rdi],dx
    81c7:	20 73 74             	and    BYTE PTR [rbx+0x74],dh
    81ca:	61                   	(bad)
    81cb:	72 74                	jb     8241 <vtt_putchar_at+0xae1>
    81cd:	3a 20                	cmp    ah,BYTE PTR [rax]
    81cf:	30 78 25             	xor    BYTE PTR [rax+0x25],bh
    81d2:	58                   	pop    rax
    81d3:	2c 20                	sub    al,0x20
    81d5:	6b 65 72 6e          	imul   esp,DWORD PTR [rbp+0x72],0x6e
    81d9:	65 6c                	gs ins BYTE PTR es:[rdi],dx
    81db:	20 65 6e             	and    BYTE PTR [rbp+0x6e],ah
    81de:	64 3a 20             	cmp    ah,BYTE PTR fs:[rax]
    81e1:	30 78 25             	xor    BYTE PTR [rax+0x25],bh
    81e4:	58                   	pop    rax
    81e5:	0a 00                	or     al,BYTE PTR [rax]
    81e7:	00 02                	add    BYTE PTR [rdx],al
    81e9:	42 6f                	rex.X outs dx,DWORD PTR ds:[rsi]
    81eb:	6f                   	outs   dx,DWORD PTR ds:[rsi]
    81ec:	74 20                	je     820e <vtt_putchar_at+0xaae>
    81ee:	64 61                	fs (bad)
    81f0:	74 65                	je     8257 <vtt_putchar_at+0xaf7>
    81f2:	3a 20                	cmp    ah,BYTE PTR [rax]
    81f4:	25 30 32 64 2f       	and    eax,0x2f643230
    81f9:	25 30 32 64 2f       	and    eax,0x2f643230
    81fe:	25 30 34 64 20       	and    eax,0x20643430
    8203:	28 44 44 3a          	sub    BYTE PTR [rsp+rax*2+0x3a],al
    8207:	4d                   	rex.WRB
    8208:	4d 3a 59 59          	rex.WRB cmp r11b,BYTE PTR [r9+0x59]
    820c:	59                   	pop    rcx
    820d:	59                   	pop    rcx
    820e:	29 0a                	sub    DWORD PTR [rdx],ecx
	...
    8218:	02 42 75             	add    al,BYTE PTR [rdx+0x75]
    821b:	69 6c 64 20 54 69 6d 	imul   ebp,DWORD PTR [rsp+riz*2+0x20],0x656d6954
    8222:	65 
    8223:	73 74                	jae    8299 <vtt_putchar_at+0xb39>
    8225:	61                   	(bad)
    8226:	6d                   	ins    DWORD PTR es:[rdi],dx
    8227:	70 3a                	jo     8263 <vtt_putchar_at+0xb03>
    8229:	20 25 73 2e 20 42    	and    BYTE PTR [rip+0x42202e73],ah        # 4220b0a2 <_k_end+0x42177c7a>
    822f:	75 69                	jne    829a <vtt_putchar_at+0xb3a>
    8231:	6c                   	ins    BYTE PTR es:[rdi],dx
    8232:	74 20                	je     8254 <vtt_putchar_at+0xaf4>
    8234:	77 69                	ja     829f <vtt_putchar_at+0xb3f>
    8236:	74 68                	je     82a0 <vtt_putchar_at+0xb40>
    8238:	20 67 63             	and    BYTE PTR [rdi+0x63],ah
    823b:	63 2d 25 73 0a 00    	movsxd ebp,DWORD PTR [rip+0xa7325]        # af566 <_k_end+0x1c13e>
    8241:	00 00                	add    BYTE PTR [rax],al
    8243:	00 00                	add    BYTE PTR [rax],al
    8245:	00 00                	add    BYTE PTR [rax],al
    8247:	00 01                	add    BYTE PTR [rcx],al
    8249:	20 20                	and    BYTE PTR [rax],ah
    824b:	20 20                	and    BYTE PTR [rax],ah
    824d:	20 20                	and    BYTE PTR [rax],ah
    824f:	20 20                	and    BYTE PTR [rax],ah
    8251:	20 20                	and    BYTE PTR [rax],ah
    8253:	20 20                	and    BYTE PTR [rax],ah
    8255:	20 20                	and    BYTE PTR [rax],ah
    8257:	20 20                	and    BYTE PTR [rax],ah
    8259:	20 5f 5f             	and    BYTE PTR [rdi+0x5f],bl
    825c:	5f                   	pop    rdi
    825d:	5f                   	pop    rdi
    825e:	20 20                	and    BYTE PTR [rax],ah
    8260:	20 5f 5f             	and    BYTE PTR [rdi+0x5f],bl
    8263:	5f                   	pop    rdi
    8264:	5f                   	pop    rdi
    8265:	5f                   	pop    rdi
    8266:	20 20                	and    BYTE PTR [rax],ah
    8268:	20 20                	and    BYTE PTR [rax],ah
    826a:	20 20                	and    BYTE PTR [rax],ah
    826c:	20 20                	and    BYTE PTR [rax],ah
    826e:	20 20                	and    BYTE PTR [rax],ah
    8270:	5f                   	pop    rdi
    8271:	5f                   	pop    rdi
    8272:	20 5f 20             	and    BYTE PTR [rdi+0x20],bl
    8275:	20 5f 0a             	and    BYTE PTR [rdi+0xa],bl
    8278:	20 20                	and    BYTE PTR [rax],ah
    827a:	20 20                	and    BYTE PTR [rax],ah
    827c:	20 20                	and    BYTE PTR [rax],ah
    827e:	20 20                	and    BYTE PTR [rax],ah
    8280:	20 20                	and    BYTE PTR [rax],ah
    8282:	20 20                	and    BYTE PTR [rax],ah
    8284:	20 20                	and    BYTE PTR [rax],ah
    8286:	20 20                	and    BYTE PTR [rax],ah
    8288:	2f                   	(bad)
    8289:	20 5f 5f             	and    BYTE PTR [rdi+0x5f],bl
    828c:	20 5c 20 2f          	and    BYTE PTR [rax+riz*1+0x2f],bl
    8290:	20 5f 5f             	and    BYTE PTR [rdi+0x5f],bl
    8293:	5f                   	pop    rdi
    8294:	5f                   	pop    rdi
    8295:	7c 20                	jl     82b7 <vtt_putchar_at+0xb57>
    8297:	20 20                	and    BYTE PTR [rax],ah
    8299:	20 20                	and    BYTE PTR [rax],ah
    829b:	20 20                	and    BYTE PTR [rax],ah
    829d:	20 2f                	and    BYTE PTR [rdi],ch
    829f:	20 2f                	and    BYTE PTR [rdi],ch
    82a1:	7c 20                	jl     82c3 <vtt_putchar_at+0xb63>
    82a3:	7c 7c                	jl     8321 <vtt_putchar_at+0xbc1>
    82a5:	20 7c 0a 5f          	and    BYTE PTR [rdx+rcx*1+0x5f],bh
    82a9:	5f                   	pop    rdi
    82aa:	20 20                	and    BYTE PTR [rax],ah
    82ac:	20 5f 5f             	and    BYTE PTR [rdi+0x5f],bl
    82af:	5f                   	pop    rdi
    82b0:	5f                   	pop    rdi
    82b1:	5f                   	pop    rdi
    82b2:	5f                   	pop    rdi
    82b3:	5f                   	pop    rdi
    82b4:	20 20                	and    BYTE PTR [rax],ah
    82b6:	5f                   	pop    rdi
    82b7:	7c 20                	jl     82d9 <vtt_putchar_at+0xb79>
    82b9:	7c 20                	jl     82db <vtt_putchar_at+0xb7b>
    82bb:	20 7c 20 7c          	and    BYTE PTR [rax+riz*1+0x7c],bh
    82bf:	20 28                	and    BYTE PTR [rax],ch
    82c1:	5f                   	pop    rdi
    82c2:	5f                   	pop    rdi
    82c3:	5f                   	pop    rdi
    82c4:	20 20                	and    BYTE PTR [rax],ah
    82c6:	20 5f 5f             	and    BYTE PTR [rdi+0x5f],bl
    82c9:	20 20                	and    BYTE PTR [rax],ah
    82cb:	5f                   	pop    rdi
    82cc:	5f                   	pop    rdi
    82cd:	2f                   	(bad)
    82ce:	20 2f                	and    BYTE PTR [rdi],ch
    82d0:	5f                   	pop    rdi
    82d1:	7c 20                	jl     82f3 <vtt_putchar_at+0xb93>
    82d3:	7c 7c                	jl     8351 <vtt_putchar_at+0xbf1>
    82d5:	20 7c 5f 0a          	and    BYTE PTR [rdi+rbx*2+0xa],bh
    82d9:	5c                   	pop    rsp
    82da:	20 5c 20 2f          	and    BYTE PTR [rax+riz*1+0x2f],bl
    82de:	20 2f                	and    BYTE PTR [rdi],ch
    82e0:	20 5f 20             	and    BYTE PTR [rdi+0x20],bl
    82e3:	5c                   	pop    rsp
    82e4:	20 5c 2f 20          	and    BYTE PTR [rdi+rbp*1+0x20],bl
    82e8:	2f                   	(bad)
    82e9:	20 7c 20 20          	and    BYTE PTR [rax+riz*1+0x20],bh
    82ed:	7c 20                	jl     830f <vtt_putchar_at+0xbaf>
    82ef:	7c 5c                	jl     834d <vtt_putchar_at+0xbed>
    82f1:	5f                   	pop    rdi
    82f2:	5f                   	pop    rdi
    82f3:	5f                   	pop    rdi
    82f4:	20 5c 20 20          	and    BYTE PTR [rax+riz*1+0x20],bl
    82f8:	5c                   	pop    rsp
    82f9:	20 5c 2f 20          	and    BYTE PTR [rdi+rbp*1+0x20],bl
    82fd:	2f                   	(bad)
    82fe:	20 27                	and    BYTE PTR [rdi],ah
    8300:	5f                   	pop    rdi
    8301:	20 5c 5f 5f          	and    BYTE PTR [rdi+rbx*2+0x5f],bl
    8305:	20 20                	and    BYTE PTR [rax],ah
    8307:	20 5f 7c             	and    BYTE PTR [rdi+0x7c],bl
    830a:	0a 20                	or     ah,BYTE PTR [rax]
    830c:	5c                   	pop    rsp
    830d:	20 56 20             	and    BYTE PTR [rsi+0x20],dl
    8310:	2f                   	(bad)
    8311:	20 20                	and    BYTE PTR [rax],ah
    8313:	5f                   	pop    rdi
    8314:	5f                   	pop    rdi
    8315:	2f                   	(bad)
    8316:	3e 20 20             	ds and BYTE PTR [rax],ah
    8319:	3c 7c                	cmp    al,0x7c
    831b:	20 7c 5f 5f          	and    BYTE PTR [rdi+rbx*2+0x5f],bh
    831f:	7c 20                	jl     8341 <vtt_putchar_at+0xbe1>
    8321:	7c 5f                	jl     8382 <vtt_putchar_at+0xc22>
    8323:	5f                   	pop    rdi
    8324:	5f                   	pop    rdi
    8325:	5f                   	pop    rdi
    8326:	29 20                	sub    DWORD PTR [rax],esp
    8328:	7c 20                	jl     834a <vtt_putchar_at+0xbea>
    832a:	20 3e                	and    BYTE PTR [rsi],bh
    832c:	20 20                	and    BYTE PTR [rax],ah
    832e:	3c 7c                	cmp    al,0x7c
    8330:	20 28                	and    BYTE PTR [rax],ch
    8332:	5f                   	pop    rdi
    8333:	29 20                	sub    DWORD PTR [rax],esp
    8335:	7c 20                	jl     8357 <vtt_putchar_at+0xbf7>
    8337:	7c 20                	jl     8359 <vtt_putchar_at+0xbf9>
    8339:	7c 0a                	jl     8345 <vtt_putchar_at+0xbe5>
    833b:	20 20                	and    BYTE PTR [rax],ah
    833d:	5c                   	pop    rsp
    833e:	5f                   	pop    rdi
    833f:	2f                   	(bad)
    8340:	20 5c 5f 5f          	and    BYTE PTR [rdi+rbx*2+0x5f],bl
    8344:	5f                   	pop    rdi
    8345:	2f                   	(bad)
    8346:	5f                   	pop    rdi
    8347:	2f                   	(bad)
    8348:	5c                   	pop    rsp
    8349:	5f                   	pop    rdi
    834a:	5c                   	pop    rsp
    834b:	5c                   	pop    rsp
    834c:	5f                   	pop    rdi
    834d:	5f                   	pop    rdi
    834e:	5f                   	pop    rdi
    834f:	5f                   	pop    rdi
    8350:	2f                   	(bad)
    8351:	7c 5f                	jl     83b2 <vtt_putchar_at+0xc52>
    8353:	5f                   	pop    rdi
    8354:	5f                   	pop    rdi
    8355:	5f                   	pop    rdi
    8356:	5f                   	pop    rdi
    8357:	2f                   	(bad)
    8358:	20 20                	and    BYTE PTR [rax],ah
    835a:	2f                   	(bad)
    835b:	5f                   	pop    rdi
    835c:	2f                   	(bad)
    835d:	5c                   	pop    rsp
    835e:	5f                   	pop    rdi
    835f:	5c                   	pop    rsp
    8360:	5c                   	pop    rsp
    8361:	5f                   	pop    rdi
    8362:	5f                   	pop    rdi
    8363:	5f                   	pop    rdi
    8364:	2f                   	(bad)
    8365:	20 20                	and    BYTE PTR [rax],ah
    8367:	7c 5f                	jl     83c8 <vtt_putchar_at+0xc68>
    8369:	7c 20                	jl     838b <vtt_putchar_at+0xc2b>
    836b:	20 20                	and    BYTE PTR [rax],ah
    836d:	62                   	(bad)
    836e:	79 20                	jns    8390 <vtt_putchar_at+0xc30>
    8370:	25 73 0a 0a 00       	and    eax,0xa0a73
    8375:	00 00                	add    BYTE PTR [rax],al
    8377:	00 42 6f             	add    BYTE PTR [rdx+0x6f],al
    837a:	6f                   	outs   dx,DWORD PTR ds:[rsi]
    837b:	74 65                	je     83e2 <vtt_putchar_at+0xc82>
    837d:	64 20 76 65          	and    BYTE PTR fs:[rsi+0x65],dh
    8381:	78 4f                	js     83d2 <vtt_putchar_at+0xc72>
    8383:	53                   	push   rbx
    8384:	20 21                	and    BYTE PTR [rcx],ah
    8386:	20 28                	and    BYTE PTR [rax],ch
    8388:	25 73 2c 20 25       	and    eax,0x25202c73
    838d:	73 20                	jae    83af <vtt_putchar_at+0xc4f>
    838f:	55                   	push   rbp
    8390:	45                   	rex.RB
    8391:	46                   	rex.RX
    8392:	49 29 20             	sub    QWORD PTR [r8],rsp
    8395:	40 20 00             	rex and BYTE PTR [rax],al
    8398:	25 30 32 64 3a       	and    eax,0x3a643230
    839d:	25 30 32 64 3a       	and    eax,0x3a643230
    83a2:	25 30 32 64 2c       	and    eax,0x2c643230
    83a7:	20 25 30 32 64 2f    	and    BYTE PTR [rip+0x2f643230],ah        # 2f64b5dd <_k_end+0x2f5b81b5>
    83ad:	25 30 32 64 2f       	and    eax,0x2f643230
    83b2:	25 30 34 64 0a       	and    eax,0xa643430
    83b7:	0a 00                	or     al,BYTE PTR [rax]
    83b9:	0f 1f 80 00 00 00 00 	nop    DWORD PTR [rax+0x0]
    83c0:	00 00                	add    BYTE PTR [rax],al
    83c2:	00 00                	add    BYTE PTR [rax],al
    83c4:	00 00                	add    BYTE PTR [rax],al
    83c6:	f0 3f                	lock (bad)
    83c8:	00 00                	add    BYTE PTR [rax],al
    83ca:	00 00                	add    BYTE PTR [rax],al
    83cc:	00 00                	add    BYTE PTR [rax],al
    83ce:	f0 bf 18 2d 44 54    	lock mov edi,0x54442d18
    83d4:	fb                   	sti
    83d5:	21 09                	and    DWORD PTR [rcx],ecx
    83d7:	40 00 00             	rex add BYTE PTR [rax],al
    83da:	00 00                	add    BYTE PTR [rax],al
    83dc:	00 00                	add    BYTE PTR [rax],al
    83de:	e0 3f                	loopne 841f <vtt_putchar_at+0xcbf>
    83e0:	00 00                	add    BYTE PTR [rax],al
    83e2:	00 00                	add    BYTE PTR [rax],al
    83e4:	00 00                	add    BYTE PTR [rax],al
    83e6:	38 40 00             	cmp    BYTE PTR [rax+0x0],al
    83e9:	00 00                	add    BYTE PTR [rax],al
    83eb:	00 00                	add    BYTE PTR [rax],al
    83ed:	80 86 40 18 2d 44 54 	add    BYTE PTR [rsi+0x442d1840],0x54
    83f4:	fb                   	sti
    83f5:	21 f9                	and    ecx,edi
    83f7:	3f                   	(bad)
    83f8:	02 53 65             	add    dl,BYTE PTR [rbx+0x65]
    83fb:	74 74                	je     8471 <vtt_putchar_at+0xd11>
    83fd:	69 6e 67 20 75 70 20 	imul   ebp,DWORD PTR [rsi+0x67],0x20707520
    8404:	6d                   	ins    DWORD PTR es:[rdi],dx
    8405:	65 6d                	gs ins DWORD PTR es:[rdi],dx
    8407:	6f                   	outs   dx,DWORD PTR ds:[rsi]
    8408:	72 79                	jb     8483 <vtt_putchar_at+0xd23>
    840a:	2e 2e 2e 20 00       	cs cs cs and BYTE PTR [rax],al
    840f:	90                   	nop
    8410:	02 4d 65             	add    cl,BYTE PTR [rbp+0x65]
    8413:	6d                   	ins    DWORD PTR es:[rdi],dx
    8414:	6f                   	outs   dx,DWORD PTR ds:[rsi]
    8415:	72 79                	jb     8490 <vtt_putchar_at+0xd30>
    8417:	20 4d 61             	and    BYTE PTR [rbp+0x61],cl
    841a:	70 20                	jo     843c <vtt_putchar_at+0xcdc>
    841c:	49 6e                	rex.WB outs dx,BYTE PTR ds:[rsi]
    841e:	66 6f                	outs   dx,WORD PTR ds:[rsi]
    8420:	3a 20                	cmp    ah,BYTE PTR [rax]
    8422:	25 64 20 65 6e       	and    eax,0x6e652064
    8427:	74 72                	je     849b <vtt_putchar_at+0xd3b>
    8429:	69 65 73 20 28 73 68 	imul   esp,DWORD PTR [rbp+0x73],0x68732820
    8430:	6f                   	outs   dx,DWORD PTR ds:[rsi]
    8431:	77 69                	ja     849c <vtt_putchar_at+0xd3c>
    8433:	6e                   	outs   dx,BYTE PTR ds:[rsi]
    8434:	67 20 63 6f          	and    BYTE PTR [ebx+0x6f],ah
    8438:	6e                   	outs   dx,BYTE PTR ds:[rsi]
    8439:	76 65                	jbe    84a0 <vtt_putchar_at+0xd40>
    843b:	6e                   	outs   dx,BYTE PTR ds:[rsi]
    843c:	74 69                	je     84a7 <vtt_putchar_at+0xd47>
    843e:	6f                   	outs   dx,DWORD PTR ds:[rsi]
    843f:	6e                   	outs   dx,BYTE PTR ds:[rsi]
    8440:	61                   	(bad)
    8441:	6c                   	ins    BYTE PTR es:[rdi],dx
    8442:	29 3a                	sub    DWORD PTR [rdx],edi
    8444:	0a 00                	or     al,BYTE PTR [rax]
    8446:	00 00                	add    BYTE PTR [rax],al
    8448:	02 45 6e             	add    al,BYTE PTR [rbp+0x6e]
    844b:	74 72                	je     84bf <vtt_putchar_at+0xd5f>
    844d:	79 20                	jns    846f <vtt_putchar_at+0xd0f>
    844f:	4e 6f                	rex.WRX outs dx,DWORD PTR ds:[rsi]
    8451:	20 25 33 64 3a 20    	and    BYTE PTR [rip+0x203a6433],ah        # 203ae88a <_k_end+0x2031b462>
    8457:	25 73 20 20 20       	and    eax,0x20202073
    845c:	20 09                	and    BYTE PTR [rcx],cl
    845e:	25 38 64 20 4b       	and    eax,0x4b206438
    8463:	42 20 09             	rex.X and BYTE PTR [rcx],cl
    8466:	30 78 25             	xor    BYTE PTR [rax+0x25],bh
    8469:	30 31                	xor    BYTE PTR [rcx],dh
    846b:	30 58 20             	xor    BYTE PTR [rax+0x20],bl
    846e:	25 63 0a 00 00       	and    eax,0xa63
    8473:	00 00                	add    BYTE PTR [rax],al
    8475:	00 00                	add    BYTE PTR [rax],al
    8477:	00 02                	add    BYTE PTR [rdx],al
    8479:	54                   	push   rsp
    847a:	6f                   	outs   dx,DWORD PTR ds:[rsi]
    847b:	74 61                	je     84de <vtt_putchar_at+0xd7e>
    847d:	6c                   	ins    BYTE PTR es:[rdi],dx
    847e:	20 6d 65             	and    BYTE PTR [rbp+0x65],ch
    8481:	6d                   	ins    DWORD PTR es:[rdi],dx
    8482:	6f                   	outs   dx,DWORD PTR ds:[rsi]
    8483:	72 79                	jb     84fe <vtt_putchar_at+0xd9e>
    8485:	3a 20                	cmp    ah,BYTE PTR [rax]
    8487:	25 64 20 4d 65       	and    eax,0x654d2064
    848c:	67 61                	addr32 (bad)
    848e:	62                   	(bad)
    848f:	79 74                	jns    8505 <vtt_putchar_at+0xda5>
    8491:	65 73 20             	gs jae 84b4 <vtt_putchar_at+0xd54>
    8494:	28 25 64 20 70 61    	sub    BYTE PTR [rip+0x61702064],ah        # 6170a4fe <_k_end+0x616770d6>
    849a:	67 65 73 29          	addr32 gs jae 84c7 <vtt_putchar_at+0xd67>
    849e:	0a 00                	or     al,BYTE PTR [rax]
    84a0:	02 53 65             	add    dl,BYTE PTR [rbx+0x65]
    84a3:	74 74                	je     8519 <vtt_putchar_at+0xdb9>
    84a5:	69 6e 67 20 75 70 20 	imul   ebp,DWORD PTR [rsi+0x67],0x20707520
    84ac:	50                   	push   rax
    84ad:	49                   	rex.WB
    84ae:	43 20 28             	rex.XB and BYTE PTR [r8],bpl
    84b1:	77 2f                	ja     84e2 <vtt_putchar_at+0xd82>
    84b3:	6f                   	outs   dx,DWORD PTR ds:[rsi]
    84b4:	20 64 65 76          	and    BYTE PTR [rbp+riz*2+0x76],ah
    84b8:	69 63 65 73 29 2e 2e 	imul   esp,DWORD PTR [rbx+0x65],0x2e2e2973
    84bf:	2e 20 00             	cs and BYTE PTR [rax],al
    84c2:	02 53 65             	add    dl,BYTE PTR [rbx+0x65]
    84c5:	74 74                	je     853b <vtt_putchar_at+0xddb>
    84c7:	69 6e 67 20 75 70 20 	imul   ebp,DWORD PTR [rsi+0x67],0x20707520
    84ce:	50                   	push   rax
    84cf:	49 54                	rex.WB push r12
    84d1:	2e 2e 2e 20 00       	cs cs cs and BYTE PTR [rax],al
    84d6:	66 90                	xchg   ax,ax
    84d8:	e3 ca                	jrcxz  84a4 <vtt_putchar_at+0xd44>
    84da:	ff                   	(bad)
    84db:	ff                   	(bad)
    84dc:	ff                   	(bad)
    84dd:	ff                   	(bad)
    84de:	ff                   	(bad)
    84df:	ff 5b cd             	call   FWORD PTR [rbx-0x33]
    84e2:	ff                   	(bad)
    84e3:	ff                   	(bad)
    84e4:	ff                   	(bad)
    84e5:	ff                   	(bad)
    84e6:	ff                   	(bad)
    84e7:	ff 5b cd             	call   FWORD PTR [rbx-0x33]
    84ea:	ff                   	(bad)
    84eb:	ff                   	(bad)
    84ec:	ff                   	(bad)
    84ed:	ff                   	(bad)
    84ee:	ff                   	(bad)
    84ef:	ff 5b cd             	call   FWORD PTR [rbx-0x33]
    84f2:	ff                   	(bad)
    84f3:	ff                   	(bad)
    84f4:	ff                   	(bad)
    84f5:	ff                   	(bad)
    84f6:	ff                   	(bad)
    84f7:	ff 5b cd             	call   FWORD PTR [rbx-0x33]
    84fa:	ff                   	(bad)
    84fb:	ff                   	(bad)
    84fc:	ff                   	(bad)
    84fd:	ff                   	(bad)
    84fe:	ff                   	(bad)
    84ff:	ff 5b cd             	call   FWORD PTR [rbx-0x33]
    8502:	ff                   	(bad)
    8503:	ff                   	(bad)
    8504:	ff                   	(bad)
    8505:	ff                   	(bad)
    8506:	ff                   	(bad)
    8507:	ff 5b cd             	call   FWORD PTR [rbx-0x33]
    850a:	ff                   	(bad)
    850b:	ff                   	(bad)
    850c:	ff                   	(bad)
    850d:	ff                   	(bad)
    850e:	ff                   	(bad)
    850f:	ff 5b cd             	call   FWORD PTR [rbx-0x33]
    8512:	ff                   	(bad)
    8513:	ff                   	(bad)
    8514:	ff                   	(bad)
    8515:	ff                   	(bad)
    8516:	ff                   	(bad)
    8517:	ff 5b cd             	call   FWORD PTR [rbx-0x33]
    851a:	ff                   	(bad)
    851b:	ff                   	(bad)
    851c:	ff                   	(bad)
    851d:	ff                   	(bad)
    851e:	ff                   	(bad)
    851f:	ff 5b cd             	call   FWORD PTR [rbx-0x33]
    8522:	ff                   	(bad)
    8523:	ff                   	(bad)
    8524:	ff                   	(bad)
    8525:	ff                   	(bad)
    8526:	ff                   	(bad)
    8527:	ff 5b cd             	call   FWORD PTR [rbx-0x33]
    852a:	ff                   	(bad)
    852b:	ff                   	(bad)
    852c:	ff                   	(bad)
    852d:	ff                   	(bad)
    852e:	ff                   	(bad)
    852f:	ff 1e                	call   FWORD PTR [rsi]
    8531:	cb                   	retf
    8532:	ff                   	(bad)
    8533:	ff                   	(bad)
    8534:	ff                   	(bad)
    8535:	ff                   	(bad)
    8536:	ff                   	(bad)
    8537:	ff 27                	jmp    QWORD PTR [rdi]
    8539:	cb                   	retf
    853a:	ff                   	(bad)
    853b:	ff                   	(bad)
    853c:	ff                   	(bad)
    853d:	ff                   	(bad)
    853e:	ff                   	(bad)
    853f:	ff 27                	jmp    QWORD PTR [rdi]
    8541:	cb                   	retf
    8542:	ff                   	(bad)
    8543:	ff                   	(bad)
    8544:	ff                   	(bad)
    8545:	ff                   	(bad)
    8546:	ff                   	(bad)
    8547:	ff 27                	jmp    QWORD PTR [rdi]
    8549:	cb                   	retf
    854a:	ff                   	(bad)
    854b:	ff                   	(bad)
    854c:	ff                   	(bad)
    854d:	ff                   	(bad)
    854e:	ff                   	(bad)
    854f:	ff 27                	jmp    QWORD PTR [rdi]
    8551:	cb                   	retf
    8552:	ff                   	(bad)
    8553:	ff                   	(bad)
    8554:	ff                   	(bad)
    8555:	ff                   	(bad)
    8556:	ff                   	(bad)
    8557:	ff 27                	jmp    QWORD PTR [rdi]
    8559:	cb                   	retf
    855a:	ff                   	(bad)
    855b:	ff                   	(bad)
    855c:	ff                   	(bad)
    855d:	ff                   	(bad)
    855e:	ff                   	(bad)
    855f:	ff 27                	jmp    QWORD PTR [rdi]
    8561:	cb                   	retf
    8562:	ff                   	(bad)
    8563:	ff                   	(bad)
    8564:	ff                   	(bad)
    8565:	ff                   	(bad)
    8566:	ff                   	(bad)
    8567:	ff 27                	jmp    QWORD PTR [rdi]
    8569:	cb                   	retf
    856a:	ff                   	(bad)
    856b:	ff                   	(bad)
    856c:	ff                   	(bad)
    856d:	ff                   	(bad)
    856e:	ff                   	(bad)
    856f:	ff 27                	jmp    QWORD PTR [rdi]
    8571:	cb                   	retf
    8572:	ff                   	(bad)
    8573:	ff                   	(bad)
    8574:	ff                   	(bad)
    8575:	ff                   	(bad)
    8576:	ff                   	(bad)
    8577:	ff 27                	jmp    QWORD PTR [rdi]
    8579:	cb                   	retf
    857a:	ff                   	(bad)
    857b:	ff                   	(bad)
    857c:	ff                   	(bad)
    857d:	ff                   	(bad)
    857e:	ff                   	(bad)
    857f:	ff 5b cd             	call   FWORD PTR [rbx-0x33]
    8582:	ff                   	(bad)
    8583:	ff                   	(bad)
    8584:	ff                   	(bad)
    8585:	ff                   	(bad)
    8586:	ff                   	(bad)
    8587:	ff 5b cd             	call   FWORD PTR [rbx-0x33]
    858a:	ff                   	(bad)
    858b:	ff                   	(bad)
    858c:	ff                   	(bad)
    858d:	ff                   	(bad)
    858e:	ff                   	(bad)
    858f:	ff 5b cd             	call   FWORD PTR [rbx-0x33]
    8592:	ff                   	(bad)
    8593:	ff                   	(bad)
    8594:	ff                   	(bad)
    8595:	ff                   	(bad)
    8596:	ff                   	(bad)
    8597:	ff 5b cd             	call   FWORD PTR [rbx-0x33]
    859a:	ff                   	(bad)
    859b:	ff                   	(bad)
    859c:	ff                   	(bad)
    859d:	ff                   	(bad)
    859e:	ff                   	(bad)
    859f:	ff 5b cd             	call   FWORD PTR [rbx-0x33]
    85a2:	ff                   	(bad)
    85a3:	ff                   	(bad)
    85a4:	ff                   	(bad)
    85a5:	ff                   	(bad)
    85a6:	ff                   	(bad)
    85a7:	ff 5b cd             	call   FWORD PTR [rbx-0x33]
    85aa:	ff                   	(bad)
    85ab:	ff                   	(bad)
    85ac:	ff                   	(bad)
    85ad:	ff                   	(bad)
    85ae:	ff                   	(bad)
    85af:	ff 5b cd             	call   FWORD PTR [rbx-0x33]
    85b2:	ff                   	(bad)
    85b3:	ff                   	(bad)
    85b4:	ff                   	(bad)
    85b5:	ff                   	(bad)
    85b6:	ff                   	(bad)
    85b7:	ff 5b cd             	call   FWORD PTR [rbx-0x33]
    85ba:	ff                   	(bad)
    85bb:	ff                   	(bad)
    85bc:	ff                   	(bad)
    85bd:	ff                   	(bad)
    85be:	ff                   	(bad)
    85bf:	ff 5b cd             	call   FWORD PTR [rbx-0x33]
    85c2:	ff                   	(bad)
    85c3:	ff                   	(bad)
    85c4:	ff                   	(bad)
    85c5:	ff                   	(bad)
    85c6:	ff                   	(bad)
    85c7:	ff 89 cb ff ff ff    	dec    DWORD PTR [rcx-0x35]
    85cd:	ff                   	(bad)
    85ce:	ff                   	(bad)
    85cf:	ff d0                	call   rax
    85d1:	cb                   	retf
    85d2:	ff                   	(bad)
    85d3:	ff                   	(bad)
    85d4:	ff                   	(bad)
    85d5:	ff                   	(bad)
    85d6:	ff                   	(bad)
    85d7:	ff 5b cd             	call   FWORD PTR [rbx-0x33]
    85da:	ff                   	(bad)
    85db:	ff                   	(bad)
    85dc:	ff                   	(bad)
    85dd:	ff                   	(bad)
    85de:	ff                   	(bad)
    85df:	ff 5b cd             	call   FWORD PTR [rbx-0x33]
    85e2:	ff                   	(bad)
    85e3:	ff                   	(bad)
    85e4:	ff                   	(bad)
    85e5:	ff                   	(bad)
    85e6:	ff                   	(bad)
    85e7:	ff 5b cd             	call   FWORD PTR [rbx-0x33]
    85ea:	ff                   	(bad)
    85eb:	ff                   	(bad)
    85ec:	ff                   	(bad)
    85ed:	ff                   	(bad)
    85ee:	ff                   	(bad)
    85ef:	ff 5b cd             	call   FWORD PTR [rbx-0x33]
    85f2:	ff                   	(bad)
    85f3:	ff                   	(bad)
    85f4:	ff                   	(bad)
    85f5:	ff                   	(bad)
    85f6:	ff                   	(bad)
    85f7:	ff 5b cd             	call   FWORD PTR [rbx-0x33]
    85fa:	ff                   	(bad)
    85fb:	ff                   	(bad)
    85fc:	ff                   	(bad)
    85fd:	ff                   	(bad)
    85fe:	ff                   	(bad)
    85ff:	ff 5b cd             	call   FWORD PTR [rbx-0x33]
    8602:	ff                   	(bad)
    8603:	ff                   	(bad)
    8604:	ff                   	(bad)
    8605:	ff                   	(bad)
    8606:	ff                   	(bad)
    8607:	ff 5b cd             	call   FWORD PTR [rbx-0x33]
    860a:	ff                   	(bad)
    860b:	ff                   	(bad)
    860c:	ff                   	(bad)
    860d:	ff                   	(bad)
    860e:	ff                   	(bad)
    860f:	ff 5b cd             	call   FWORD PTR [rbx-0x33]
    8612:	ff                   	(bad)
    8613:	ff                   	(bad)
    8614:	ff                   	(bad)
    8615:	ff                   	(bad)
    8616:	ff                   	(bad)
    8617:	ff 5b cd             	call   FWORD PTR [rbx-0x33]
    861a:	ff                   	(bad)
    861b:	ff                   	(bad)
    861c:	ff                   	(bad)
    861d:	ff                   	(bad)
    861e:	ff                   	(bad)
    861f:	ff 5b cd             	call   FWORD PTR [rbx-0x33]
    8622:	ff                   	(bad)
    8623:	ff                   	(bad)
    8624:	ff                   	(bad)
    8625:	ff                   	(bad)
    8626:	ff                   	(bad)
    8627:	ff 5b cd             	call   FWORD PTR [rbx-0x33]
    862a:	ff                   	(bad)
    862b:	ff                   	(bad)
    862c:	ff                   	(bad)
    862d:	ff                   	(bad)
    862e:	ff                   	(bad)
    862f:	ff 5b cd             	call   FWORD PTR [rbx-0x33]
    8632:	ff                   	(bad)
    8633:	ff                   	(bad)
    8634:	ff                   	(bad)
    8635:	ff                   	(bad)
    8636:	ff                   	(bad)
    8637:	ff 5b cd             	call   FWORD PTR [rbx-0x33]
    863a:	ff                   	(bad)
    863b:	ff                   	(bad)
    863c:	ff                   	(bad)
    863d:	ff                   	(bad)
    863e:	ff                   	(bad)
    863f:	ff 5b cd             	call   FWORD PTR [rbx-0x33]
    8642:	ff                   	(bad)
    8643:	ff                   	(bad)
    8644:	ff                   	(bad)
    8645:	ff                   	(bad)
    8646:	ff                   	(bad)
    8647:	ff 21                	jmp    QWORD PTR [rcx]
    8649:	cd ff                	int    0xff
    864b:	ff                   	(bad)
    864c:	ff                   	(bad)
    864d:	ff                   	(bad)
    864e:	ff                   	(bad)
    864f:	ff 5b cd             	call   FWORD PTR [rbx-0x33]
    8652:	ff                   	(bad)
    8653:	ff                   	(bad)
    8654:	ff                   	(bad)
    8655:	ff                   	(bad)
    8656:	ff                   	(bad)
    8657:	ff 5b cd             	call   FWORD PTR [rbx-0x33]
    865a:	ff                   	(bad)
    865b:	ff                   	(bad)
    865c:	ff                   	(bad)
    865d:	ff                   	(bad)
    865e:	ff                   	(bad)
    865f:	ff 5b cd             	call   FWORD PTR [rbx-0x33]
    8662:	ff                   	(bad)
    8663:	ff                   	(bad)
    8664:	ff                   	(bad)
    8665:	ff                   	(bad)
    8666:	ff                   	(bad)
    8667:	ff 5b cd             	call   FWORD PTR [rbx-0x33]
    866a:	ff                   	(bad)
    866b:	ff                   	(bad)
    866c:	ff                   	(bad)
    866d:	ff                   	(bad)
    866e:	ff                   	(bad)
    866f:	ff b0 cc ff ff ff    	push   QWORD PTR [rax-0x34]
    8675:	ff                   	(bad)
    8676:	ff                   	(bad)
    8677:	ff 5b cd             	call   FWORD PTR [rbx-0x33]
    867a:	ff                   	(bad)
    867b:	ff                   	(bad)
    867c:	ff                   	(bad)
    867d:	ff                   	(bad)
    867e:	ff                   	(bad)
    867f:	ff 5b cd             	call   FWORD PTR [rbx-0x33]
    8682:	ff                   	(bad)
    8683:	ff                   	(bad)
    8684:	ff                   	(bad)
    8685:	ff                   	(bad)
    8686:	ff                   	(bad)
    8687:	ff 5b cd             	call   FWORD PTR [rbx-0x33]
    868a:	ff                   	(bad)
    868b:	ff                   	(bad)
    868c:	ff                   	(bad)
    868d:	ff                   	(bad)
    868e:	ff                   	(bad)
    868f:	ff 5b cd             	call   FWORD PTR [rbx-0x33]
    8692:	ff                   	(bad)
    8693:	ff                   	(bad)
    8694:	ff                   	(bad)
    8695:	ff                   	(bad)
    8696:	ff                   	(bad)
    8697:	ff 5b cd             	call   FWORD PTR [rbx-0x33]
    869a:	ff                   	(bad)
    869b:	ff                   	(bad)
    869c:	ff                   	(bad)
    869d:	ff                   	(bad)
    869e:	ff                   	(bad)
    869f:	ff 5b cd             	call   FWORD PTR [rbx-0x33]
    86a2:	ff                   	(bad)
    86a3:	ff                   	(bad)
    86a4:	ff                   	(bad)
    86a5:	ff                   	(bad)
    86a6:	ff                   	(bad)
    86a7:	ff 5b cd             	call   FWORD PTR [rbx-0x33]
    86aa:	ff                   	(bad)
    86ab:	ff                   	(bad)
    86ac:	ff                   	(bad)
    86ad:	ff                   	(bad)
    86ae:	ff                   	(bad)
    86af:	ff 5b cd             	call   FWORD PTR [rbx-0x33]
    86b2:	ff                   	(bad)
    86b3:	ff                   	(bad)
    86b4:	ff                   	(bad)
    86b5:	ff                   	(bad)
    86b6:	ff                   	(bad)
    86b7:	ff 5b cd             	call   FWORD PTR [rbx-0x33]
    86ba:	ff                   	(bad)
    86bb:	ff                   	(bad)
    86bc:	ff                   	(bad)
    86bd:	ff                   	(bad)
    86be:	ff                   	(bad)
    86bf:	ff 5b cd             	call   FWORD PTR [rbx-0x33]
    86c2:	ff                   	(bad)
    86c3:	ff                   	(bad)
    86c4:	ff                   	(bad)
    86c5:	ff                   	(bad)
    86c6:	ff                   	(bad)
    86c7:	ff 89 cb ff ff ff    	dec    DWORD PTR [rcx-0x35]
    86cd:	ff                   	(bad)
    86ce:	ff                   	(bad)
    86cf:	ff d0                	call   rax
    86d1:	cb                   	retf
    86d2:	ff                   	(bad)
    86d3:	ff                   	(bad)
    86d4:	ff                   	(bad)
    86d5:	ff                   	(bad)
    86d6:	ff                   	(bad)
    86d7:	ff 5b cd             	call   FWORD PTR [rbx-0x33]
    86da:	ff                   	(bad)
    86db:	ff                   	(bad)
    86dc:	ff                   	(bad)
    86dd:	ff                   	(bad)
    86de:	ff                   	(bad)
    86df:	ff 5b cd             	call   FWORD PTR [rbx-0x33]
    86e2:	ff                   	(bad)
    86e3:	ff                   	(bad)
    86e4:	ff                   	(bad)
    86e5:	ff                   	(bad)
    86e6:	ff                   	(bad)
    86e7:	ff 5b cd             	call   FWORD PTR [rbx-0x33]
    86ea:	ff                   	(bad)
    86eb:	ff                   	(bad)
    86ec:	ff                   	(bad)
    86ed:	ff                   	(bad)
    86ee:	ff                   	(bad)
    86ef:	ff 5b cd             	call   FWORD PTR [rbx-0x33]
    86f2:	ff                   	(bad)
    86f3:	ff                   	(bad)
    86f4:	ff                   	(bad)
    86f5:	ff                   	(bad)
    86f6:	ff                   	(bad)
    86f7:	ff 5b cd             	call   FWORD PTR [rbx-0x33]
    86fa:	ff                   	(bad)
    86fb:	ff                   	(bad)
    86fc:	ff                   	(bad)
    86fd:	ff                   	(bad)
    86fe:	ff                   	(bad)
    86ff:	ff 5b cd             	call   FWORD PTR [rbx-0x33]
    8702:	ff                   	(bad)
    8703:	ff                   	(bad)
    8704:	ff                   	(bad)
    8705:	ff                   	(bad)
    8706:	ff                   	(bad)
    8707:	ff 5b cd             	call   FWORD PTR [rbx-0x33]
    870a:	ff                   	(bad)
    870b:	ff                   	(bad)
    870c:	ff                   	(bad)
    870d:	ff                   	(bad)
    870e:	ff                   	(bad)
    870f:	ff 5b cd             	call   FWORD PTR [rbx-0x33]
    8712:	ff                   	(bad)
    8713:	ff                   	(bad)
    8714:	ff                   	(bad)
    8715:	ff                   	(bad)
    8716:	ff                   	(bad)
    8717:	ff 5b cd             	call   FWORD PTR [rbx-0x33]
    871a:	ff                   	(bad)
    871b:	ff                   	(bad)
    871c:	ff                   	(bad)
    871d:	ff                   	(bad)
    871e:	ff                   	(bad)
    871f:	ff 5b cd             	call   FWORD PTR [rbx-0x33]
    8722:	ff                   	(bad)
    8723:	ff                   	(bad)
    8724:	ff                   	(bad)
    8725:	ff                   	(bad)
    8726:	ff                   	(bad)
    8727:	ff 5b cd             	call   FWORD PTR [rbx-0x33]
    872a:	ff                   	(bad)
    872b:	ff                   	(bad)
    872c:	ff                   	(bad)
    872d:	ff                   	(bad)
    872e:	ff                   	(bad)
    872f:	ff 5b cd             	call   FWORD PTR [rbx-0x33]
    8732:	ff                   	(bad)
    8733:	ff                   	(bad)
    8734:	ff                   	(bad)
    8735:	ff                   	(bad)
    8736:	ff                   	(bad)
    8737:	ff 5b cd             	call   FWORD PTR [rbx-0x33]
    873a:	ff                   	(bad)
    873b:	ff                   	(bad)
    873c:	ff                   	(bad)
    873d:	ff                   	(bad)
    873e:	ff                   	(bad)
    873f:	ff 5b cd             	call   FWORD PTR [rbx-0x33]
    8742:	ff                   	(bad)
    8743:	ff                   	(bad)
    8744:	ff                   	(bad)
    8745:	ff                   	(bad)
    8746:	ff                   	(bad)
    8747:	ff 21                	jmp    QWORD PTR [rcx]
    8749:	cd ff                	int    0xff
    874b:	ff                   	(bad)
    874c:	ff                   	(bad)
    874d:	ff                   	(bad)
    874e:	ff                   	(bad)
    874f:	ff 5b cd             	call   FWORD PTR [rbx-0x33]
    8752:	ff                   	(bad)
    8753:	ff                   	(bad)
    8754:	ff                   	(bad)
    8755:	ff                   	(bad)
    8756:	ff                   	(bad)
    8757:	ff 5b cd             	call   FWORD PTR [rbx-0x33]
    875a:	ff                   	(bad)
    875b:	ff                   	(bad)
    875c:	ff                   	(bad)
    875d:	ff                   	(bad)
    875e:	ff                   	(bad)
    875f:	ff 5b cd             	call   FWORD PTR [rbx-0x33]
    8762:	ff                   	(bad)
    8763:	ff                   	(bad)
    8764:	ff                   	(bad)
    8765:	ff                   	(bad)
    8766:	ff                   	(bad)
    8767:	ff 5b cd             	call   FWORD PTR [rbx-0x33]
    876a:	ff                   	(bad)
    876b:	ff                   	(bad)
    876c:	ff                   	(bad)
    876d:	ff                   	(bad)
    876e:	ff                   	(bad)
    876f:	ff                   	(bad)
    8770:	3c cc                	cmp    al,0xcc
    8772:	ff                   	(bad)
    8773:	ff                   	(bad)
    8774:	ff                   	(bad)
    8775:	ff                   	(bad)
    8776:	ff                   	(bad)
    8777:	ff                 	inc    DWORD PTR [rdx]

0000000000008778 <.LC0>:
    8778:	02 5b 25             	add    bl,BYTE PTR [rbx+0x25]
    877b:	73 5d                	jae    87da <.LC0+0x62>
    877d:	20 3a                	and    BYTE PTR [rdx],bh
    877f:	20 25 73 00 02 53    	and    BYTE PTR [rip+0x53020073],ah        # 530287f8 <_k_end+0x52f953d0>
    8785:	65 74 74             	gs je  87fc <.LC0+0x84>
    8788:	69 6e 67 20 75 70 20 	imul   ebp,DWORD PTR [rsi+0x67],0x20707520
    878f:	50                   	push   rax
    8790:	53                   	push   rbx
    8791:	2f                   	(bad)
    8792:	32 20                	xor    ah,BYTE PTR [rax]
    8794:	4b                   	rex.WXB
    8795:	65 79 62             	gs jns 87fa <.LC0+0x82>
    8798:	6f                   	outs   dx,DWORD PTR ds:[rsi]
    8799:	61                   	(bad)
    879a:	72 64                	jb     8800 <.LC0+0x88>
    879c:	2e 2e 2e 20 00       	cs cs cs and BYTE PTR [rax],al
    87a1:	0f 1f 80 00 00 00 00 	nop    DWORD PTR [rax+0x0]
    87a8:	02 53 65             	add    dl,BYTE PTR [rbx+0x65]
    87ab:	74 74                	je     8821 <.LC0+0xa9>
    87ad:	69 6e 67 20 75 70 20 	imul   ebp,DWORD PTR [rsi+0x67],0x20707520
    87b4:	73 65                	jae    881b <.LC0+0xa3>
    87b6:	72 69                	jb     8821 <.LC0+0xa9>
    87b8:	61                   	(bad)
    87b9:	6c                   	ins    BYTE PTR es:[rdi],dx
    87ba:	20 63 6f             	and    BYTE PTR [rbx+0x6f],ah
    87bd:	6e                   	outs   dx,BYTE PTR ds:[rsi]
    87be:	6e                   	outs   dx,BYTE PTR ds:[rsi]
    87bf:	65 63 74 69 6f       	movsxd esi,DWORD PTR gs:[rcx+rbp*2+0x6f]
    87c4:	6e                   	outs   dx,BYTE PTR ds:[rsi]
    87c5:	2e 2e 2e 20 00       	cs cs cs and BYTE PTR [rax],al
    87ca:	00 00                	add    BYTE PTR [rax],al
    87cc:	00 00                	add    BYTE PTR [rax],al
    87ce:	00 00                	add    BYTE PTR [rax],al
    87d0:	0a 43 4f             	or     al,BYTE PTR [rbx+0x4f]
    87d3:	4d 31 20             	xor    QWORD PTR [r8],r12
    87d6:	53                   	push   rbx
    87d7:	65 72 69             	gs jb  8843 <.LC0+0xcb>
    87da:	61                   	(bad)
    87db:	6c                   	ins    BYTE PTR es:[rdi],dx
    87dc:	20 77 6f             	and    BYTE PTR [rdi+0x6f],dh
    87df:	72 6b                	jb     884c <.LC0+0xd4>
    87e1:	69 6e 67 21 20 28 6d 	imul   ebp,DWORD PTR [rsi+0x67],0x6d282021
    87e8:	61                   	(bad)
    87e9:	79 62                	jns    884d <.LC0+0xd5>
    87eb:	65 20 69 74          	and    BYTE PTR gs:[rcx+0x74],ch
    87ef:	20 77 61             	and    BYTE PTR [rdi+0x61],dh
    87f2:	73 20                	jae    8814 <.LC0+0x9c>
    87f4:	61                   	(bad)
    87f5:	6c                   	ins    BYTE PTR es:[rdi],dx
    87f6:	72 65                	jb     885d <.LC0+0xe5>
    87f8:	61                   	(bad)
    87f9:	64 79 20             	fs jns 881c <.LC0+0xa4>
    87fc:	75 70                	jne    886e <.LC0+0xf6>
    87fe:	29 0a                	sub    DWORD PTR [rdx],ecx
    8800:	00 01                	add    BYTE PTR [rcx],al
    8802:	5b                   	pop    rbx
    8803:	45 52                	rex.RB push r10
    8805:	52                   	push   rdx
    8806:	4f 52                	rex.WRXB push r10
    8808:	5d                   	pop    rbp
    8809:	0a 00                	or     al,BYTE PTR [rax]
    880b:	02 53 59             	add    dl,BYTE PTR [rbx+0x59]
    880e:	53                   	push   rbx
    880f:	43                   	rex.XB
    8810:	41                   	rex.B
    8811:	4c                   	rex.WR
    8812:	4c 20 30             	rex.WR and BYTE PTR [rax],r14b
    8815:	78 30                	js     8847 <.LC0+0xcf>
    8817:	30 0a                	xor    BYTE PTR [rdx],cl
    8819:	00 02                	add    BYTE PTR [rdx],al
    881b:	53                   	push   rbx
    881c:	59                   	pop    rcx
    881d:	53                   	push   rbx
    881e:	43                   	rex.XB
    881f:	41                   	rex.B
    8820:	4c                   	rex.WR
    8821:	4c 20 30             	rex.WR and BYTE PTR [rax],r14b
    8824:	78 30                	js     8856 <.LC0+0xde>
    8826:	31 0a                	xor    DWORD PTR [rdx],ecx
    8828:	00 02                	add    BYTE PTR [rdx],al
    882a:	53                   	push   rbx
    882b:	59                   	pop    rcx
    882c:	53                   	push   rbx
    882d:	43                   	rex.XB
    882e:	41                   	rex.B
    882f:	4c                   	rex.WR
    8830:	4c 20 30             	rex.WR and BYTE PTR [rax],r14b
    8833:	78 30                	js     8865 <.LC0+0xed>
    8835:	32 0a                	xor    cl,BYTE PTR [rdx]
    8837:	00 02                	add    BYTE PTR [rdx],al
    8839:	53                   	push   rbx
    883a:	65 74 74             	gs je  88b1 <uefi_memory_types_str+0x31>
    883d:	69 6e 67 20 75 70 20 	imul   ebp,DWORD PTR [rsi+0x67],0x20707520
    8844:	53                   	push   rbx
    8845:	79 73                	jns    88ba <uefi_memory_types_str+0x3a>
    8847:	63 61 6c             	movsxd esp,DWORD PTR [rcx+0x6c]
    884a:	6c                   	ins    BYTE PTR es:[rdi],dx
    884b:	73 2e                	jae    887b <.LC0+0x103>
    884d:	2e 2e 20 00          	cs cs and BYTE PTR [rax],al
    8851:	0f 1f 80 00 00 00 00 	nop    DWORD PTR [rax+0x0]
    8858:	02 56 54             	add    dl,BYTE PTR [rsi+0x54]
    885b:	54                   	push   rsp
    885c:	20 73 75             	and    BYTE PTR [rbx+0x75],dh
    885f:	63 63 65             	movsxd esp,DWORD PTR [rbx+0x65]
    8862:	73 66                	jae    88ca <uefi_memory_types_str+0x4a>
    8864:	75 6c                	jne    88d2 <uefi_memory_types_str+0x52>
    8866:	6c                   	ins    BYTE PTR es:[rdi],dx
    8867:	79 20                	jns    8889 <uefi_memory_types_str+0x9>
    8869:	69 6e 69 74 69 61 6c 	imul   ebp,DWORD PTR [rsi+0x69],0x6c616974
    8870:	69 7a 61 74 65 64 0a 	imul   edi,DWORD PTR [rdx+0x61],0xa646574
    8877:	00 00                	add    BYTE PTR [rax],al
    8879:	01 cc                	add    esp,ecx
    887b:	cc                   	int3

Disassembly of section .data:

0000000000008880 <uefi_memory_types_str>:
    8880:	72 65                	jb     88e7 <uefi_memory_types_str+0x67>
    8882:	73 65                	jae    88e9 <uefi_memory_types_str+0x69>
    8884:	72 76                	jb     88fc <uefi_memory_types_str+0x7c>
    8886:	65 64 5f             	gs fs pop rdi
    8889:	6d                   	ins    DWORD PTR es:[rdi],dx
    888a:	65 6d                	gs ins DWORD PTR es:[rdi],dx
    888c:	6f                   	outs   dx,DWORD PTR ds:[rsi]
    888d:	72 79                	jb     8908 <uefi_memory_types_str+0x88>
	...
    897f:	00 75 65             	add    BYTE PTR [rbp+0x65],dh
    8982:	66 69 5f 6c 6f 61    	imul   bx,WORD PTR [rdi+0x6c],0x616f
    8988:	64 65 72 5f          	fs gs jb 89eb <uefi_memory_types_str+0x16b>
    898c:	63 6f 64             	movsxd ebp,DWORD PTR [rdi+0x64]
    898f:	65 00 00             	add    BYTE PTR gs:[rax],al
	...
    8a7e:	00 00                	add    BYTE PTR [rax],al
    8a80:	75 65                	jne    8ae7 <uefi_memory_types_str+0x267>
    8a82:	66 69 5f 6c 6f 61    	imul   bx,WORD PTR [rdi+0x6c],0x616f
    8a88:	64 65 72 5f          	fs gs jb 8aeb <uefi_memory_types_str+0x26b>
    8a8c:	64 61                	fs (bad)
    8a8e:	74 61                	je     8af1 <uefi_memory_types_str+0x271>
	...
    8b80:	62                   	(bad)
    8b81:	6f                   	outs   dx,DWORD PTR ds:[rsi]
    8b82:	6f                   	outs   dx,DWORD PTR ds:[rsi]
    8b83:	74 5f                	je     8be4 <uefi_memory_types_str+0x364>
    8b85:	73 65                	jae    8bec <uefi_memory_types_str+0x36c>
    8b87:	72 76                	jb     8bff <uefi_memory_types_str+0x37f>
    8b89:	69 63 65 73 5f 63 6f 	imul   esp,DWORD PTR [rbx+0x65],0x6f635f73
    8b90:	64 65 00 00          	fs add BYTE PTR gs:[rax],al
	...
    8c80:	62                   	(bad)
    8c81:	6f                   	outs   dx,DWORD PTR ds:[rsi]
    8c82:	6f                   	outs   dx,DWORD PTR ds:[rsi]
    8c83:	74 5f                	je     8ce4 <uefi_memory_types_str+0x464>
    8c85:	73 65                	jae    8cec <uefi_memory_types_str+0x46c>
    8c87:	72 76                	jb     8cff <uefi_memory_types_str+0x47f>
    8c89:	69 63 65 73 5f 64 61 	imul   esp,DWORD PTR [rbx+0x65],0x61645f73
    8c90:	74 61                	je     8cf3 <uefi_memory_types_str+0x473>
	...
    8d7e:	00 00                	add    BYTE PTR [rax],al
    8d80:	72 75                	jb     8df7 <uefi_memory_types_str+0x577>
    8d82:	6e                   	outs   dx,BYTE PTR ds:[rsi]
    8d83:	74 69                	je     8dee <uefi_memory_types_str+0x56e>
    8d85:	6d                   	ins    DWORD PTR es:[rdi],dx
    8d86:	65 5f                	gs pop rdi
    8d88:	73 65                	jae    8def <uefi_memory_types_str+0x56f>
    8d8a:	72 76                	jb     8e02 <uefi_memory_types_str+0x582>
    8d8c:	69 63 65 73 5f 63 6f 	imul   esp,DWORD PTR [rbx+0x65],0x6f635f73
    8d93:	64 65 00 00          	fs add BYTE PTR gs:[rax],al
	...
    8e7f:	00 72 75             	add    BYTE PTR [rdx+0x75],dh
    8e82:	6e                   	outs   dx,BYTE PTR ds:[rsi]
    8e83:	74 69                	je     8eee <uefi_memory_types_str+0x66e>
    8e85:	6d                   	ins    DWORD PTR es:[rdi],dx
    8e86:	65 5f                	gs pop rdi
    8e88:	73 65                	jae    8eef <uefi_memory_types_str+0x66f>
    8e8a:	72 76                	jb     8f02 <uefi_memory_types_str+0x682>
    8e8c:	69 63 65 73 5f 64 61 	imul   esp,DWORD PTR [rbx+0x65],0x61645f73
    8e93:	74 61                	je     8ef6 <uefi_memory_types_str+0x676>
	...
    8f7d:	00 00                	add    BYTE PTR [rax],al
    8f7f:	00 63 6f             	add    BYTE PTR [rbx+0x6f],ah
    8f82:	6e                   	outs   dx,BYTE PTR ds:[rsi]
    8f83:	76 65                	jbe    8fea <uefi_memory_types_str+0x76a>
    8f85:	6e                   	outs   dx,BYTE PTR ds:[rsi]
    8f86:	74 69                	je     8ff1 <uefi_memory_types_str+0x771>
    8f88:	6f                   	outs   dx,DWORD PTR ds:[rsi]
    8f89:	6e                   	outs   dx,BYTE PTR ds:[rsi]
    8f8a:	61                   	(bad)
    8f8b:	6c                   	ins    BYTE PTR es:[rdi],dx
    8f8c:	5f                   	pop    rdi
    8f8d:	6d                   	ins    DWORD PTR es:[rdi],dx
    8f8e:	65 6d                	gs ins DWORD PTR es:[rdi],dx
    8f90:	6f                   	outs   dx,DWORD PTR ds:[rsi]
    8f91:	72 79                	jb     900c <uefi_memory_types_str+0x78c>
	...
    907f:	00 75 6e             	add    BYTE PTR [rbp+0x6e],dh
    9082:	75 73                	jne    90f7 <uefi_memory_types_str+0x877>
    9084:	61                   	(bad)
    9085:	62                   	(bad)
    9086:	6c                   	ins    BYTE PTR es:[rdi],dx
    9087:	65 5f                	gs pop rdi
    9089:	6d                   	ins    DWORD PTR es:[rdi],dx
    908a:	65 6d                	gs ins DWORD PTR es:[rdi],dx
    908c:	6f                   	outs   dx,DWORD PTR ds:[rsi]
    908d:	72 79                	jb     9108 <uefi_memory_types_str+0x888>
	...
    917f:	00 61 63             	add    BYTE PTR [rcx+0x63],ah
    9182:	70 69                	jo     91ed <uefi_memory_types_str+0x96d>
    9184:	5f                   	pop    rdi
    9185:	72 65                	jb     91ec <uefi_memory_types_str+0x96c>
    9187:	63 6c 61 69          	movsxd ebp,DWORD PTR [rcx+riz*2+0x69]
    918b:	6d                   	ins    DWORD PTR es:[rdi],dx
    918c:	5f                   	pop    rdi
    918d:	6d                   	ins    DWORD PTR es:[rdi],dx
    918e:	65 6d                	gs ins DWORD PTR es:[rdi],dx
    9190:	6f                   	outs   dx,DWORD PTR ds:[rsi]
    9191:	72 79                	jb     920c <uefi_memory_types_str+0x98c>
	...
    927f:	00 61 63             	add    BYTE PTR [rcx+0x63],ah
    9282:	70 69                	jo     92ed <uefi_memory_types_str+0xa6d>
    9284:	5f                   	pop    rdi
    9285:	6d                   	ins    DWORD PTR es:[rdi],dx
    9286:	65 6d                	gs ins DWORD PTR es:[rdi],dx
    9288:	6f                   	outs   dx,DWORD PTR ds:[rsi]
    9289:	72 79                	jb     9304 <uefi_memory_types_str+0xa84>
    928b:	5f                   	pop    rdi
    928c:	6e                   	outs   dx,BYTE PTR ds:[rsi]
    928d:	76 73                	jbe    9302 <uefi_memory_types_str+0xa82>
	...
    937f:	00 6d 65             	add    BYTE PTR [rbp+0x65],ch
    9382:	6d                   	ins    DWORD PTR es:[rdi],dx
    9383:	6f                   	outs   dx,DWORD PTR ds:[rsi]
    9384:	72 79                	jb     93ff <uefi_memory_types_str+0xb7f>
    9386:	5f                   	pop    rdi
    9387:	6d                   	ins    DWORD PTR es:[rdi],dx
    9388:	61                   	(bad)
    9389:	70 70                	jo     93fb <uefi_memory_types_str+0xb7b>
    938b:	65 64 5f             	gs fs pop rdi
    938e:	69 6f 00 00 00 00 00 	imul   ebp,DWORD PTR [rdi+0x0],0x0
	...
    947d:	00 00                	add    BYTE PTR [rax],al
    947f:	00 6d 65             	add    BYTE PTR [rbp+0x65],ch
    9482:	6d                   	ins    DWORD PTR es:[rdi],dx
    9483:	6f                   	outs   dx,DWORD PTR ds:[rsi]
    9484:	72 79                	jb     94ff <uefi_memory_types_str+0xc7f>
    9486:	5f                   	pop    rdi
    9487:	6d                   	ins    DWORD PTR es:[rdi],dx
    9488:	61                   	(bad)
    9489:	70 70                	jo     94fb <uefi_memory_types_str+0xc7b>
    948b:	65 64 5f             	gs fs pop rdi
    948e:	69 6f 5f 70 6f 72 74 	imul   ebp,DWORD PTR [rdi+0x5f],0x74726f70
	...
    957d:	00 00                	add    BYTE PTR [rax],al
    957f:	00 66 69             	add    BYTE PTR [rsi+0x69],ah
    9582:	72 6d                	jb     95f1 <uefi_memory_types_str+0xd71>
    9584:	77 61                	ja     95e7 <uefi_memory_types_str+0xd67>
    9586:	72 65                	jb     95ed <uefi_memory_types_str+0xd6d>
    9588:	5f                   	pop    rdi
    9589:	70 61                	jo     95ec <uefi_memory_types_str+0xd6c>
    958b:	6c                   	ins    BYTE PTR es:[rdi],dx
    958c:	5f                   	pop    rdi
    958d:	63 6f 64             	movsxd ebp,DWORD PTR [rdi+0x64]
    9590:	65 00 00             	add    BYTE PTR gs:[rax],al
	...

0000000000009680 <y>:
    9680:	f4                   	hlt
    9681:	01 00                	add    DWORD PTR [rax],eax
    9683:	00 00                	add    BYTE PTR [rax],al
    9685:	00 00                	add    BYTE PTR [rax],al
	...

0000000000009688 <x>:
    9688:	f4                   	hlt
    9689:	01 00                	add    DWORD PTR [rax],eax
	...

00000000000096a0 <KLOGFMT>:
    96a0:	5b                   	pop    rbx
    96a1:	76 65                	jbe    9708 <KEYMAP_QWERTY_US+0x28>
    96a3:	78 4f                	js     96f4 <KEYMAP_QWERTY_US+0x14>
    96a5:	53                   	push   rbx
    96a6:	6b 65 72 6e          	imul   esp,DWORD PTR [rbp+0x72],0x6e
    96aa:	65 6c                	gs ins BYTE PTR es:[rdi],dx
    96ac:	20 25 30 32 64 3a    	and    BYTE PTR [rip+0x3a643230],ah        # 3a64c8e2 <_k_end+0x3a5b94ba>
    96b2:	25 30 32 64 3a       	and    eax,0x3a643230
    96b7:	25 30 32 64 20       	and    eax,0x20643230
    96bc:	2b 25 30 39 64 2e    	sub    esp,DWORD PTR [rip+0x2e643930]        # 2e64cff2 <_k_end+0x2e5b9bca>
    96c2:	25 30 33 64 6d       	and    eax,0x6d643330
    96c7:	73 5d                	jae    9726 <KEYMAP_QWERTY_US+0x46>
    96c9:	3a 20                	cmp    ah,BYTE PTR [rax]
	...

00000000000096e0 <KEYMAP_QWERTY_US>:
    96e0:	00 00                	add    BYTE PTR [rax],al
    96e2:	00 00                	add    BYTE PTR [rax],al
    96e4:	31 21                	xor    DWORD PTR [rcx],esp
    96e6:	32 40 33             	xor    al,BYTE PTR [rax+0x33]
    96e9:	23 34 24             	and    esi,DWORD PTR [rsp]
    96ec:	35 25 36 5e 37       	xor    eax,0x375e3625
    96f1:	26 38 2a             	es cmp BYTE PTR [rdx],ch
    96f4:	39 28                	cmp    DWORD PTR [rax],ebp
    96f6:	30 29                	xor    BYTE PTR [rcx],ch
    96f8:	2d 5f 3d 2b 00       	sub    eax,0x2b3d5f
    96fd:	00 00                	add    BYTE PTR [rax],al
    96ff:	00 71 51             	add    BYTE PTR [rcx+0x51],dh
    9702:	77 57                	ja     975b <KEYMAP_QWERTY_US+0x7b>
    9704:	65 45 72 52          	gs rex.RB jb 975a <KEYMAP_QWERTY_US+0x7a>
    9708:	74 54                	je     975e <KEYMAP_QWERTY_US+0x7e>
    970a:	79 59                	jns    9765 <KEYMAP_QWERTY_US+0x85>
    970c:	75 55                	jne    9763 <KEYMAP_QWERTY_US+0x83>
    970e:	69 49 6f 4f 70 50 5b 	imul   ecx,DWORD PTR [rcx+0x6f],0x5b50704f
    9715:	7b 5d                	jnp    9774 <KEYMAP_QWERTY_US+0x94>
    9717:	7d 00                	jge    9719 <KEYMAP_QWERTY_US+0x39>
    9719:	00 00                	add    BYTE PTR [rax],al
    971b:	00 61 41             	add    BYTE PTR [rcx+0x41],ah
    971e:	73 53                	jae    9773 <KEYMAP_QWERTY_US+0x93>
    9720:	64 44                	fs rex.R
    9722:	66 46                	data16 rex.RX
    9724:	67 47 68 48 6a 4a 6b 	addr32 rex.RXB push 0x6b4a6a48
    972b:	4b 6c                	rex.WXB ins BYTE PTR es:[rdi],dx
    972d:	4c 3b 3a             	cmp    r15,QWORD PTR [rdx]
    9730:	27                   	(bad)
    9731:	22 60 7e             	and    ah,BYTE PTR [rax+0x7e]
    9734:	00 00                	add    BYTE PTR [rax],al
    9736:	5c                   	pop    rsp
    9737:	7c 7a                	jl     97b3 <_GLOBAL_OFFSET_TABLE_+0x23>
    9739:	5a                   	pop    rdx
    973a:	78 58                	js     9794 <_GLOBAL_OFFSET_TABLE_+0x4>
    973c:	63 43 76             	movsxd eax,DWORD PTR [rbx+0x76]
    973f:	56                   	push   rsi
    9740:	62 42 6e 4e 6d       	(bad)
    9745:	4d 2c 3c             	rex.WRB sub al,0x3c
    9748:	2e 3e 2f             	cs ds (bad)
    974b:	3f                   	(bad)
    974c:	00 00                	add    BYTE PTR [rax],al
    974e:	2a 2a                	sub    ch,BYTE PTR [rdx]
    9750:	00 00                	add    BYTE PTR [rax],al
    9752:	20 20                	and    BYTE PTR [rax],ah

Disassembly of section .got:

0000000000009758 <.got>:
    9758:	60                   	(bad)
    9759:	c2 00 00             	ret    0x0
    975c:	00 00                	add    BYTE PTR [rax],al
    975e:	00 00                	add    BYTE PTR [rax],al
    9760:	c0 c0 00             	rol    al,0x0
    9763:	00 00                	add    BYTE PTR [rax],al
    9765:	00 00                	add    BYTE PTR [rax],al
    9767:	00 00                	add    BYTE PTR [rax],al
    9769:	98                   	cwde
    976a:	00 00                	add    BYTE PTR [rax],al
    976c:	00 00                	add    BYTE PTR [rax],al
    976e:	00 00                	add    BYTE PTR [rax],al
    9770:	d0 65 00             	shl    BYTE PTR [rbp+0x0],1
    9773:	00 00                	add    BYTE PTR [rax],al
    9775:	00 00                	add    BYTE PTR [rax],al
    9777:	00 28                	add    BYTE PTR [rax],ch
    9779:	34 09                	xor    al,0x9
    977b:	00 00                	add    BYTE PTR [rax],al
    977d:	00 00                	add    BYTE PTR [rax],al
    977f:	00 00                	add    BYTE PTR [rax],al
    9781:	10 00                	adc    BYTE PTR [rax],al
    9783:	00 00                	add    BYTE PTR [rax],al
    9785:	00 00                	add    BYTE PTR [rax],al
    9787:	00 50 10             	add    BYTE PTR [rax+0x10],dl
    978a:	00 00                	add    BYTE PTR [rax],al
    978c:	00 00                	add    BYTE PTR [rax],al
	...

Disassembly of section .got.plt:

0000000000009790 <_GLOBAL_OFFSET_TABLE_>:
	...

Disassembly of section .data.rel.local:

00000000000097c0 <gdt>:
    97c0:	1f                   	(bad)
    97c1:	00 00                	add    BYTE PTR [rax],al
    97c3:	a0 00 00 00 00 00 00 	movabs al,ds:0x0
    97ca:	00 00 
    97cc:	00 00                	add    BYTE PTR [rax],al
	...

00000000000097d0 <idt>:
    97d0:	ff 0f                	dec    DWORD PTR [rdi]
    97d2:	00 b0 00 00 00 00    	add    BYTE PTR [rax+0x0],dh
	...

00000000000097e0 <syscall_table>:
    97e0:	00 66 00             	add    BYTE PTR [rsi+0x0],ah
    97e3:	00 00                	add    BYTE PTR [rax],al
    97e5:	00 00                	add    BYTE PTR [rax],al
    97e7:	00 40 66             	add    BYTE PTR [rax+0x66],al
    97ea:	00 00                	add    BYTE PTR [rax],al
    97ec:	00 00                	add    BYTE PTR [rax],al
    97ee:	00 00                	add    BYTE PTR [rax],al
    97f0:	80 66 00 00          	and    BYTE PTR [rsi+0x0],0x0
    97f4:	00 00                	add    BYTE PTR [rax],al
    97f6:	00 00                	add    BYTE PTR [rax],al
    97f8:	c0 66 00 00          	shl    BYTE PTR [rsi+0x0],0x0
    97fc:	00 00                	add    BYTE PTR [rax],al
	...

Disassembly of section .data.rel:

0000000000009800 <isr_table>:
    9800:	00 30                	add    BYTE PTR [rax],dh
    9802:	00 00                	add    BYTE PTR [rax],al
    9804:	00 00                	add    BYTE PTR [rax],al
    9806:	00 00                	add    BYTE PTR [rax],al
    9808:	60                   	(bad)
    9809:	30 00                	xor    BYTE PTR [rax],al
    980b:	00 00                	add    BYTE PTR [rax],al
    980d:	00 00                	add    BYTE PTR [rax],al
    980f:	00 c0                	add    al,al
    9811:	30 00                	xor    BYTE PTR [rax],al
    9813:	00 00                	add    BYTE PTR [rax],al
    9815:	00 00                	add    BYTE PTR [rax],al
    9817:	00 20                	add    BYTE PTR [rax],ah
    9819:	31 00                	xor    DWORD PTR [rax],eax
    981b:	00 00                	add    BYTE PTR [rax],al
    981d:	00 00                	add    BYTE PTR [rax],al
    981f:	00 90 31 00 00 00    	add    BYTE PTR [rax+0x31],dl
    9825:	00 00                	add    BYTE PTR [rax],al
    9827:	00 f0                	add    al,dh
    9829:	31 00                	xor    DWORD PTR [rax],eax
    982b:	00 00                	add    BYTE PTR [rax],al
    982d:	00 00                	add    BYTE PTR [rax],al
    982f:	00 50 32             	add    BYTE PTR [rax+0x32],dl
    9832:	00 00                	add    BYTE PTR [rax],al
    9834:	00 00                	add    BYTE PTR [rax],al
    9836:	00 00                	add    BYTE PTR [rax],al
    9838:	b0 32                	mov    al,0x32
    983a:	00 00                	add    BYTE PTR [rax],al
    983c:	00 00                	add    BYTE PTR [rax],al
    983e:	00 00                	add    BYTE PTR [rax],al
    9840:	10 33                	adc    BYTE PTR [rbx],dh
    9842:	00 00                	add    BYTE PTR [rax],al
    9844:	00 00                	add    BYTE PTR [rax],al
    9846:	00 00                	add    BYTE PTR [rax],al
    9848:	70 33                	jo     987d <isr_table+0x7d>
    984a:	00 00                	add    BYTE PTR [rax],al
    984c:	00 00                	add    BYTE PTR [rax],al
    984e:	00 00                	add    BYTE PTR [rax],al
    9850:	d0 33                	shl    BYTE PTR [rbx],1
    9852:	00 00                	add    BYTE PTR [rax],al
    9854:	00 00                	add    BYTE PTR [rax],al
    9856:	00 00                	add    BYTE PTR [rax],al
    9858:	30 34 00             	xor    BYTE PTR [rax+rax*1],dh
    985b:	00 00                	add    BYTE PTR [rax],al
    985d:	00 00                	add    BYTE PTR [rax],al
    985f:	00 90 34 00 00 00    	add    BYTE PTR [rax+0x34],dl
    9865:	00 00                	add    BYTE PTR [rax],al
    9867:	00 f0                	add    al,dh
    9869:	34 00                	xor    al,0x0
    986b:	00 00                	add    BYTE PTR [rax],al
    986d:	00 00                	add    BYTE PTR [rax],al
    986f:	00 50 35             	add    BYTE PTR [rax+0x35],dl
	...
    987e:	00 00                	add    BYTE PTR [rax],al
    9880:	a0 35 00 00 00 00 00 	movabs al,ds:0x35
    9887:	00 00 
    9889:	36 00 00             	ss add BYTE PTR [rax],al
    988c:	00 00                	add    BYTE PTR [rax],al
    988e:	00 00                	add    BYTE PTR [rax],al
    9890:	60                   	(bad)
    9891:	36 00 00             	ss add BYTE PTR [rax],al
    9894:	00 00                	add    BYTE PTR [rax],al
    9896:	00 00                	add    BYTE PTR [rax],al
    9898:	c0 36 00             	shl    BYTE PTR [rsi],0x0
    989b:	00 00                	add    BYTE PTR [rax],al
    989d:	00 00                	add    BYTE PTR [rax],al
    989f:	00 20                	add    BYTE PTR [rax],ah
    98a1:	37                   	(bad)
    98a2:	00 00                	add    BYTE PTR [rax],al
    98a4:	00 00                	add    BYTE PTR [rax],al
    98a6:	00 00                	add    BYTE PTR [rax],al
    98a8:	80 37 00             	xor    BYTE PTR [rdi],0x0
	...
    98df:	00 e0                	add    al,ah
    98e1:	37                   	(bad)
    98e2:	00 00                	add    BYTE PTR [rax],al
    98e4:	00 00                	add    BYTE PTR [rax],al
    98e6:	00 00                	add    BYTE PTR [rax],al
    98e8:	40 38 00             	rex cmp BYTE PTR [rax],al
    98eb:	00 00                	add    BYTE PTR [rax],al
    98ed:	00 00                	add    BYTE PTR [rax],al
    98ef:	00 a0 38 00 00 00    	add    BYTE PTR [rax+0x38],ah
	...
    98fd:	00 00                	add    BYTE PTR [rax],al
    98ff:	00 c0                	add    al,al
    9901:	4c 00 00             	rex.WR add BYTE PTR [rax],r8b
    9904:	00 00                	add    BYTE PTR [rax],al
    9906:	00 00                	add    BYTE PTR [rax],al
    9908:	f0 5b                	lock pop rbx
    990a:	00 00                	add    BYTE PTR [rax],al
    990c:	00 00                	add    BYTE PTR [rax],al
    990e:	00 00                	add    BYTE PTR [rax],al
    9910:	40 2f                	rex (bad)
    9912:	00 00                	add    BYTE PTR [rax],al
    9914:	00 00                	add    BYTE PTR [rax],al
    9916:	00 00                	add    BYTE PTR [rax],al
    9918:	40 2f                	rex (bad)
    991a:	00 00                	add    BYTE PTR [rax],al
    991c:	00 00                	add    BYTE PTR [rax],al
    991e:	00 00                	add    BYTE PTR [rax],al
    9920:	40 2f                	rex (bad)
    9922:	00 00                	add    BYTE PTR [rax],al
    9924:	00 00                	add    BYTE PTR [rax],al
    9926:	00 00                	add    BYTE PTR [rax],al
    9928:	40 2f                	rex (bad)
    992a:	00 00                	add    BYTE PTR [rax],al
    992c:	00 00                	add    BYTE PTR [rax],al
    992e:	00 00                	add    BYTE PTR [rax],al
    9930:	40 2f                	rex (bad)
    9932:	00 00                	add    BYTE PTR [rax],al
    9934:	00 00                	add    BYTE PTR [rax],al
    9936:	00 00                	add    BYTE PTR [rax],al
    9938:	40 2f                	rex (bad)
    993a:	00 00                	add    BYTE PTR [rax],al
    993c:	00 00                	add    BYTE PTR [rax],al
    993e:	00 00                	add    BYTE PTR [rax],al
    9940:	40 2f                	rex (bad)
    9942:	00 00                	add    BYTE PTR [rax],al
    9944:	00 00                	add    BYTE PTR [rax],al
    9946:	00 00                	add    BYTE PTR [rax],al
    9948:	40 2f                	rex (bad)
    994a:	00 00                	add    BYTE PTR [rax],al
    994c:	00 00                	add    BYTE PTR [rax],al
    994e:	00 00                	add    BYTE PTR [rax],al
    9950:	40 2f                	rex (bad)
    9952:	00 00                	add    BYTE PTR [rax],al
    9954:	00 00                	add    BYTE PTR [rax],al
    9956:	00 00                	add    BYTE PTR [rax],al
    9958:	40 2f                	rex (bad)
    995a:	00 00                	add    BYTE PTR [rax],al
    995c:	00 00                	add    BYTE PTR [rax],al
    995e:	00 00                	add    BYTE PTR [rax],al
    9960:	a0 5e 00 00 00 00 00 	movabs al,ds:0x400000000000005e
    9967:	00 40 
    9969:	2f                   	(bad)
    996a:	00 00                	add    BYTE PTR [rax],al
    996c:	00 00                	add    BYTE PTR [rax],al
    996e:	00 00                	add    BYTE PTR [rax],al
    9970:	40 2f                	rex (bad)
    9972:	00 00                	add    BYTE PTR [rax],al
    9974:	00 00                	add    BYTE PTR [rax],al
    9976:	00 00                	add    BYTE PTR [rax],al
    9978:	40 2f                	rex (bad)
    997a:	00 00                	add    BYTE PTR [rax],al
    997c:	00 00                	add    BYTE PTR [rax],al
    997e:	00 00                	add    BYTE PTR [rax],al
    9980:	a0 2f 00 00 00 00 00 	movabs al,ds:0x2f
    9987:	00 00 
	...

Disassembly of section .bss:

000000000000a000 <gdt_seg>:
	...

000000000000b000 <idt_isr>:
	...

000000000000c000 <kbd_shift>:
    c000:	00 00                	add    BYTE PTR [rax],al
	...

000000000000c004 <input_buffer_offset>:
	...

000000000000c020 <input_buffer>:
	...

000000000000c060 <key_buffer_offset>:
	...

000000000000c080 <key_buffer>:
	...

000000000000c0c0 <bootinfo>:
	...

000000000000c0c8 <rng_seed>:
	...

000000000000c0d0 <time>:
	...

000000000000c0e0 <usable_mem_arr_size>:
	...

000000000000c100 <usable_mem_arr>:
	...

000000000000c200 <mem_total_pages>:
	...

000000000000c208 <mem_total_bytes>:
	...

000000000000c210 <holdrand>:
	...

000000000000c218 <serial_enabled>:
	...

000000000000c220 <current_ms>:
	...

000000000000c230 <efitime>:
	...

000000000000c240 <handle_escape>:
	...

000000000000c248 <video_buff>:
	...

000000000000c250 <RESY>:
    c250:	00 00                	add    BYTE PTR [rax],al
	...

000000000000c254 <RESX>:
    c254:	00 00                	add    BYTE PTR [rax],al
	...

000000000000c258 <vttcurrterm>:
	...

000000000000c260 <vtts>:
	...
